
Actividad 1.elf:     file format elf32-avr

Sections:
Idx Name          Size      VMA       LMA       File off  Algn
  0 .data         00000096  00800100  00001da4  00001e38  2**0
                  CONTENTS, ALLOC, LOAD, DATA
  1 .text         00001da4  00000000  00000000  00000094  2**1
                  CONTENTS, ALLOC, LOAD, READONLY, CODE
  2 .bss          0000035c  00800196  00800196  00001ece  2**0
                  ALLOC
  3 .comment      00000030  00000000  00000000  00001ece  2**0
                  CONTENTS, READONLY
  4 .note.gnu.avr.deviceinfo 00000040  00000000  00000000  00001f00  2**2
                  CONTENTS, READONLY
  5 .debug_aranges 000002e8  00000000  00000000  00001f40  2**0
                  CONTENTS, READONLY, DEBUGGING
  6 .debug_info   00004200  00000000  00000000  00002228  2**0
                  CONTENTS, READONLY, DEBUGGING
  7 .debug_abbrev 000013de  00000000  00000000  00006428  2**0
                  CONTENTS, READONLY, DEBUGGING
  8 .debug_line   00001bdc  00000000  00000000  00007806  2**0
                  CONTENTS, READONLY, DEBUGGING
  9 .debug_frame  000007dc  00000000  00000000  000093e4  2**2
                  CONTENTS, READONLY, DEBUGGING
 10 .debug_str    0000122c  00000000  00000000  00009bc0  2**0
                  CONTENTS, READONLY, DEBUGGING
 11 .debug_loc    00002729  00000000  00000000  0000adec  2**0
                  CONTENTS, READONLY, DEBUGGING
 12 .debug_ranges 00000258  00000000  00000000  0000d515  2**0
                  CONTENTS, READONLY, DEBUGGING

Disassembly of section .text:

00000000 <__vectors>:
       0:	0c 94 5e 00 	jmp	0xbc	; 0xbc <__ctors_end>
       4:	0c 94 86 00 	jmp	0x10c	; 0x10c <__bad_interrupt>
       8:	0c 94 86 00 	jmp	0x10c	; 0x10c <__bad_interrupt>
       c:	0c 94 86 00 	jmp	0x10c	; 0x10c <__bad_interrupt>
      10:	0c 94 86 00 	jmp	0x10c	; 0x10c <__bad_interrupt>
      14:	0c 94 86 00 	jmp	0x10c	; 0x10c <__bad_interrupt>
      18:	0c 94 86 00 	jmp	0x10c	; 0x10c <__bad_interrupt>
      1c:	0c 94 86 00 	jmp	0x10c	; 0x10c <__bad_interrupt>
      20:	0c 94 86 00 	jmp	0x10c	; 0x10c <__bad_interrupt>
      24:	0c 94 2f 0b 	jmp	0x165e	; 0x165e <__vector_9>
      28:	0c 94 86 00 	jmp	0x10c	; 0x10c <__bad_interrupt>
      2c:	0c 94 86 00 	jmp	0x10c	; 0x10c <__bad_interrupt>
      30:	0c 94 86 00 	jmp	0x10c	; 0x10c <__bad_interrupt>
      34:	0c 94 86 00 	jmp	0x10c	; 0x10c <__bad_interrupt>
      38:	0c 94 86 00 	jmp	0x10c	; 0x10c <__bad_interrupt>
      3c:	0c 94 86 00 	jmp	0x10c	; 0x10c <__bad_interrupt>
      40:	0c 94 8f 02 	jmp	0x51e	; 0x51e <__vector_16>
      44:	0c 94 86 00 	jmp	0x10c	; 0x10c <__bad_interrupt>
      48:	0c 94 38 04 	jmp	0x870	; 0x870 <__vector_18>
      4c:	0c 94 12 04 	jmp	0x824	; 0x824 <__vector_19>
      50:	0c 94 86 00 	jmp	0x10c	; 0x10c <__bad_interrupt>
      54:	0c 94 4f 05 	jmp	0xa9e	; 0xa9e <__vector_21>
      58:	0c 94 86 00 	jmp	0x10c	; 0x10c <__bad_interrupt>
      5c:	0c 94 86 00 	jmp	0x10c	; 0x10c <__bad_interrupt>
      60:	0c 94 86 00 	jmp	0x10c	; 0x10c <__bad_interrupt>
      64:	0c 94 86 00 	jmp	0x10c	; 0x10c <__bad_interrupt>

00000068 <__trampolines_end>:
      68:	00 00       	nop
      6a:	00 00       	nop
      6c:	24 00       	.word	0x0024	; ????
      6e:	27 00       	.word	0x0027	; ????
      70:	2a 00       	.word	0x002a	; ????

00000072 <port_to_output_PGM>:
      72:	00 00 00 00 25 00 28 00 2b 00                       ....%.(.+.

0000007c <digital_pin_to_port_PGM>:
      7c:	04 04 04 04 04 04 04 04 02 02 02 02 02 02 03 03     ................
      8c:	03 03 03 03                                         ....

00000090 <digital_pin_to_bit_mask_PGM>:
      90:	01 02 04 08 10 20 40 80 01 02 04 08 10 20 01 02     ..... @...... ..
      a0:	04 08 10 20                                         ... 

000000a4 <digital_pin_to_timer_PGM>:
      a4:	00 00 00 08 00 02 01 00 00 03 04 07 00 00 00 00     ................
      b4:	00 00 00 00                                         ....

000000b8 <__ctors_start>:
      b8:	bc 0a       	sbc	r11, r28
      ba:	2b 0c       	add	r2, r11

000000bc <__ctors_end>:
      bc:	11 24       	eor	r1, r1
      be:	1f be       	out	0x3f, r1	; 63
      c0:	cf ef       	ldi	r28, 0xFF	; 255
      c2:	d8 e0       	ldi	r29, 0x08	; 8
      c4:	de bf       	out	0x3e, r29	; 62
      c6:	cd bf       	out	0x3d, r28	; 61

000000c8 <__do_copy_data>:
      c8:	11 e0       	ldi	r17, 0x01	; 1
      ca:	a0 e0       	ldi	r26, 0x00	; 0
      cc:	b1 e0       	ldi	r27, 0x01	; 1
      ce:	e4 ea       	ldi	r30, 0xA4	; 164
      d0:	fd e1       	ldi	r31, 0x1D	; 29
      d2:	02 c0       	rjmp	.+4      	; 0xd8 <__do_copy_data+0x10>
      d4:	05 90       	lpm	r0, Z+
      d6:	0d 92       	st	X+, r0
      d8:	a6 39       	cpi	r26, 0x96	; 150
      da:	b1 07       	cpc	r27, r17
      dc:	d9 f7       	brne	.-10     	; 0xd4 <__do_copy_data+0xc>

000000de <__do_clear_bss>:
      de:	24 e0       	ldi	r18, 0x04	; 4
      e0:	a6 e9       	ldi	r26, 0x96	; 150
      e2:	b1 e0       	ldi	r27, 0x01	; 1
      e4:	01 c0       	rjmp	.+2      	; 0xe8 <.do_clear_bss_start>

000000e6 <.do_clear_bss_loop>:
      e6:	1d 92       	st	X+, r1

000000e8 <.do_clear_bss_start>:
      e8:	a2 3f       	cpi	r26, 0xF2	; 242
      ea:	b2 07       	cpc	r27, r18
      ec:	e1 f7       	brne	.-8      	; 0xe6 <.do_clear_bss_loop>

000000ee <__do_global_ctors>:
      ee:	10 e0       	ldi	r17, 0x00	; 0
      f0:	ce e5       	ldi	r28, 0x5E	; 94
      f2:	d0 e0       	ldi	r29, 0x00	; 0
      f4:	04 c0       	rjmp	.+8      	; 0xfe <__do_global_ctors+0x10>
      f6:	21 97       	sbiw	r28, 0x01	; 1
      f8:	fe 01       	movw	r30, r28
      fa:	0e 94 6f 0e 	call	0x1cde	; 0x1cde <__tablejump2__>
      fe:	cc 35       	cpi	r28, 0x5C	; 92
     100:	d1 07       	cpc	r29, r17
     102:	c9 f7       	brne	.-14     	; 0xf6 <__do_global_ctors+0x8>
     104:	0e 94 e1 0b 	call	0x17c2	; 0x17c2 <main>
     108:	0c 94 d0 0e 	jmp	0x1da0	; 0x1da0 <_exit>

0000010c <__bad_interrupt>:
     10c:	0c 94 00 00 	jmp	0	; 0x0 <__vectors>

00000110 <_ZN5Print5printEc.constprop.9>:
     110:	dc 01       	movw	r26, r24
     112:	ed 91       	ld	r30, X+
     114:	fc 91       	ld	r31, X
     116:	01 90       	ld	r0, Z+
     118:	f0 81       	ld	r31, Z
     11a:	e0 2d       	mov	r30, r0
     11c:	09 94       	ijmp

0000011e <_ZN5Print5writeEPKhj>:
     11e:	cf 92       	push	r12
     120:	df 92       	push	r13
     122:	ef 92       	push	r14
     124:	ff 92       	push	r15
     126:	0f 93       	push	r16
     128:	1f 93       	push	r17
     12a:	cf 93       	push	r28
     12c:	df 93       	push	r29
     12e:	6c 01       	movw	r12, r24
     130:	7a 01       	movw	r14, r20
     132:	8b 01       	movw	r16, r22
     134:	c0 e0       	ldi	r28, 0x00	; 0
     136:	d0 e0       	ldi	r29, 0x00	; 0
     138:	ce 15       	cp	r28, r14
     13a:	df 05       	cpc	r29, r15
     13c:	81 f0       	breq	.+32     	; 0x15e <_ZN5Print5writeEPKhj+0x40>
     13e:	d8 01       	movw	r26, r16
     140:	6d 91       	ld	r22, X+
     142:	8d 01       	movw	r16, r26
     144:	d6 01       	movw	r26, r12
     146:	ed 91       	ld	r30, X+
     148:	fc 91       	ld	r31, X
     14a:	01 90       	ld	r0, Z+
     14c:	f0 81       	ld	r31, Z
     14e:	e0 2d       	mov	r30, r0
     150:	c6 01       	movw	r24, r12
     152:	09 95       	icall
     154:	89 2b       	or	r24, r25
     156:	11 f0       	breq	.+4      	; 0x15c <_ZN5Print5writeEPKhj+0x3e>
     158:	21 96       	adiw	r28, 0x01	; 1
     15a:	ee cf       	rjmp	.-36     	; 0x138 <_ZN5Print5writeEPKhj+0x1a>
     15c:	7e 01       	movw	r14, r28
     15e:	c7 01       	movw	r24, r14
     160:	df 91       	pop	r29
     162:	cf 91       	pop	r28
     164:	1f 91       	pop	r17
     166:	0f 91       	pop	r16
     168:	ff 90       	pop	r15
     16a:	ef 90       	pop	r14
     16c:	df 90       	pop	r13
     16e:	cf 90       	pop	r12
     170:	08 95       	ret

00000172 <_ZN14HardwareSerial17availableForWriteEv>:
     172:	fc 01       	movw	r30, r24
     174:	53 8d       	ldd	r21, Z+27	; 0x1b
     176:	44 8d       	ldd	r20, Z+28	; 0x1c
     178:	25 2f       	mov	r18, r21
     17a:	30 e0       	ldi	r19, 0x00	; 0
     17c:	84 2f       	mov	r24, r20
     17e:	90 e0       	ldi	r25, 0x00	; 0
     180:	82 1b       	sub	r24, r18
     182:	93 0b       	sbc	r25, r19
     184:	54 17       	cp	r21, r20
     186:	10 f0       	brcs	.+4      	; 0x18c <_ZN14HardwareSerial17availableForWriteEv+0x1a>
     188:	cf 96       	adiw	r24, 0x3f	; 63
     18a:	08 95       	ret
     18c:	01 97       	sbiw	r24, 0x01	; 1
     18e:	08 95       	ret

00000190 <_ZN14HardwareSerial4readEv>:
     190:	fc 01       	movw	r30, r24
     192:	91 8d       	ldd	r25, Z+25	; 0x19
     194:	82 8d       	ldd	r24, Z+26	; 0x1a
     196:	98 17       	cp	r25, r24
     198:	61 f0       	breq	.+24     	; 0x1b2 <_ZN14HardwareSerial4readEv+0x22>
     19a:	82 8d       	ldd	r24, Z+26	; 0x1a
     19c:	df 01       	movw	r26, r30
     19e:	a8 0f       	add	r26, r24
     1a0:	b1 1d       	adc	r27, r1
     1a2:	5d 96       	adiw	r26, 0x1d	; 29
     1a4:	8c 91       	ld	r24, X
     1a6:	92 8d       	ldd	r25, Z+26	; 0x1a
     1a8:	9f 5f       	subi	r25, 0xFF	; 255
     1aa:	9f 73       	andi	r25, 0x3F	; 63
     1ac:	92 8f       	std	Z+26, r25	; 0x1a
     1ae:	90 e0       	ldi	r25, 0x00	; 0
     1b0:	08 95       	ret
     1b2:	8f ef       	ldi	r24, 0xFF	; 255
     1b4:	9f ef       	ldi	r25, 0xFF	; 255
     1b6:	08 95       	ret

000001b8 <_ZN14HardwareSerial4peekEv>:
     1b8:	fc 01       	movw	r30, r24
     1ba:	91 8d       	ldd	r25, Z+25	; 0x19
     1bc:	82 8d       	ldd	r24, Z+26	; 0x1a
     1be:	98 17       	cp	r25, r24
     1c0:	31 f0       	breq	.+12     	; 0x1ce <_ZN14HardwareSerial4peekEv+0x16>
     1c2:	82 8d       	ldd	r24, Z+26	; 0x1a
     1c4:	e8 0f       	add	r30, r24
     1c6:	f1 1d       	adc	r31, r1
     1c8:	85 8d       	ldd	r24, Z+29	; 0x1d
     1ca:	90 e0       	ldi	r25, 0x00	; 0
     1cc:	08 95       	ret
     1ce:	8f ef       	ldi	r24, 0xFF	; 255
     1d0:	9f ef       	ldi	r25, 0xFF	; 255
     1d2:	08 95       	ret

000001d4 <_ZN14HardwareSerial9availableEv>:
     1d4:	fc 01       	movw	r30, r24
     1d6:	91 8d       	ldd	r25, Z+25	; 0x19
     1d8:	22 8d       	ldd	r18, Z+26	; 0x1a
     1da:	89 2f       	mov	r24, r25
     1dc:	90 e0       	ldi	r25, 0x00	; 0
     1de:	80 5c       	subi	r24, 0xC0	; 192
     1e0:	9f 4f       	sbci	r25, 0xFF	; 255
     1e2:	82 1b       	sub	r24, r18
     1e4:	91 09       	sbc	r25, r1
     1e6:	8f 73       	andi	r24, 0x3F	; 63
     1e8:	99 27       	eor	r25, r25
     1ea:	08 95       	ret

000001ec <_Z17Serial0_availablev>:
     1ec:	86 e9       	ldi	r24, 0x96	; 150
     1ee:	91 e0       	ldi	r25, 0x01	; 1
     1f0:	0e 94 ea 00 	call	0x1d4	; 0x1d4 <_ZN14HardwareSerial9availableEv>
     1f4:	21 e0       	ldi	r18, 0x01	; 1
     1f6:	89 2b       	or	r24, r25
     1f8:	09 f4       	brne	.+2      	; 0x1fc <_Z17Serial0_availablev+0x10>
     1fa:	20 e0       	ldi	r18, 0x00	; 0
     1fc:	82 2f       	mov	r24, r18
     1fe:	08 95       	ret

00000200 <_ZN14HardwareSerial17_tx_udr_empty_irqEv>:
     200:	fc 01       	movw	r30, r24
     202:	84 8d       	ldd	r24, Z+28	; 0x1c
     204:	df 01       	movw	r26, r30
     206:	a8 0f       	add	r26, r24
     208:	b1 1d       	adc	r27, r1
     20a:	a3 5a       	subi	r26, 0xA3	; 163
     20c:	bf 4f       	sbci	r27, 0xFF	; 255
     20e:	2c 91       	ld	r18, X
     210:	84 8d       	ldd	r24, Z+28	; 0x1c
     212:	90 e0       	ldi	r25, 0x00	; 0
     214:	01 96       	adiw	r24, 0x01	; 1
     216:	8f 73       	andi	r24, 0x3F	; 63
     218:	99 27       	eor	r25, r25
     21a:	84 8f       	std	Z+28, r24	; 0x1c
     21c:	a6 89       	ldd	r26, Z+22	; 0x16
     21e:	b7 89       	ldd	r27, Z+23	; 0x17
     220:	2c 93       	st	X, r18
     222:	a0 89       	ldd	r26, Z+16	; 0x10
     224:	b1 89       	ldd	r27, Z+17	; 0x11
     226:	8c 91       	ld	r24, X
     228:	83 70       	andi	r24, 0x03	; 3
     22a:	80 64       	ori	r24, 0x40	; 64
     22c:	8c 93       	st	X, r24
     22e:	93 8d       	ldd	r25, Z+27	; 0x1b
     230:	84 8d       	ldd	r24, Z+28	; 0x1c
     232:	98 13       	cpse	r25, r24
     234:	06 c0       	rjmp	.+12     	; 0x242 <_ZN14HardwareSerial17_tx_udr_empty_irqEv+0x42>
     236:	02 88       	ldd	r0, Z+18	; 0x12
     238:	f3 89       	ldd	r31, Z+19	; 0x13
     23a:	e0 2d       	mov	r30, r0
     23c:	80 81       	ld	r24, Z
     23e:	8f 7d       	andi	r24, 0xDF	; 223
     240:	80 83       	st	Z, r24
     242:	08 95       	ret

00000244 <_ZN14HardwareSerial5writeEh>:
     244:	ef 92       	push	r14
     246:	ff 92       	push	r15
     248:	0f 93       	push	r16
     24a:	1f 93       	push	r17
     24c:	cf 93       	push	r28
     24e:	df 93       	push	r29
     250:	ec 01       	movw	r28, r24
     252:	81 e0       	ldi	r24, 0x01	; 1
     254:	88 8f       	std	Y+24, r24	; 0x18
     256:	9b 8d       	ldd	r25, Y+27	; 0x1b
     258:	8c 8d       	ldd	r24, Y+28	; 0x1c
     25a:	98 13       	cpse	r25, r24
     25c:	05 c0       	rjmp	.+10     	; 0x268 <_ZN14HardwareSerial5writeEh+0x24>
     25e:	e8 89       	ldd	r30, Y+16	; 0x10
     260:	f9 89       	ldd	r31, Y+17	; 0x11
     262:	80 81       	ld	r24, Z
     264:	85 fd       	sbrc	r24, 5
     266:	26 c0       	rjmp	.+76     	; 0x2b4 <_ZN14HardwareSerial5writeEh+0x70>
     268:	f6 2e       	mov	r15, r22
     26a:	0b 8d       	ldd	r16, Y+27	; 0x1b
     26c:	10 e0       	ldi	r17, 0x00	; 0
     26e:	0f 5f       	subi	r16, 0xFF	; 255
     270:	1f 4f       	sbci	r17, 0xFF	; 255
     272:	0f 73       	andi	r16, 0x3F	; 63
     274:	11 27       	eor	r17, r17
     276:	e0 2e       	mov	r14, r16
     278:	8c 8d       	ldd	r24, Y+28	; 0x1c
     27a:	e8 12       	cpse	r14, r24
     27c:	0c c0       	rjmp	.+24     	; 0x296 <_ZN14HardwareSerial5writeEh+0x52>
     27e:	0f b6       	in	r0, 0x3f	; 63
     280:	07 fc       	sbrc	r0, 7
     282:	fa cf       	rjmp	.-12     	; 0x278 <_ZN14HardwareSerial5writeEh+0x34>
     284:	e8 89       	ldd	r30, Y+16	; 0x10
     286:	f9 89       	ldd	r31, Y+17	; 0x11
     288:	80 81       	ld	r24, Z
     28a:	85 ff       	sbrs	r24, 5
     28c:	f5 cf       	rjmp	.-22     	; 0x278 <_ZN14HardwareSerial5writeEh+0x34>
     28e:	ce 01       	movw	r24, r28
     290:	0e 94 00 01 	call	0x200	; 0x200 <_ZN14HardwareSerial17_tx_udr_empty_irqEv>
     294:	f1 cf       	rjmp	.-30     	; 0x278 <_ZN14HardwareSerial5writeEh+0x34>
     296:	8b 8d       	ldd	r24, Y+27	; 0x1b
     298:	fe 01       	movw	r30, r28
     29a:	e8 0f       	add	r30, r24
     29c:	f1 1d       	adc	r31, r1
     29e:	e3 5a       	subi	r30, 0xA3	; 163
     2a0:	ff 4f       	sbci	r31, 0xFF	; 255
     2a2:	f0 82       	st	Z, r15
     2a4:	9f b7       	in	r25, 0x3f	; 63
     2a6:	f8 94       	cli
     2a8:	0b 8f       	std	Y+27, r16	; 0x1b
     2aa:	ea 89       	ldd	r30, Y+18	; 0x12
     2ac:	fb 89       	ldd	r31, Y+19	; 0x13
     2ae:	80 81       	ld	r24, Z
     2b0:	80 62       	ori	r24, 0x20	; 32
     2b2:	0a c0       	rjmp	.+20     	; 0x2c8 <_ZN14HardwareSerial5writeEh+0x84>
     2b4:	9f b7       	in	r25, 0x3f	; 63
     2b6:	f8 94       	cli
     2b8:	ee 89       	ldd	r30, Y+22	; 0x16
     2ba:	ff 89       	ldd	r31, Y+23	; 0x17
     2bc:	60 83       	st	Z, r22
     2be:	e8 89       	ldd	r30, Y+16	; 0x10
     2c0:	f9 89       	ldd	r31, Y+17	; 0x11
     2c2:	80 81       	ld	r24, Z
     2c4:	83 70       	andi	r24, 0x03	; 3
     2c6:	80 64       	ori	r24, 0x40	; 64
     2c8:	80 83       	st	Z, r24
     2ca:	9f bf       	out	0x3f, r25	; 63
     2cc:	81 e0       	ldi	r24, 0x01	; 1
     2ce:	90 e0       	ldi	r25, 0x00	; 0
     2d0:	df 91       	pop	r29
     2d2:	cf 91       	pop	r28
     2d4:	1f 91       	pop	r17
     2d6:	0f 91       	pop	r16
     2d8:	ff 90       	pop	r15
     2da:	ef 90       	pop	r14
     2dc:	08 95       	ret

000002de <_ZN14HardwareSerial5flushEv>:
     2de:	cf 93       	push	r28
     2e0:	df 93       	push	r29
     2e2:	ec 01       	movw	r28, r24
     2e4:	88 8d       	ldd	r24, Y+24	; 0x18
     2e6:	88 23       	and	r24, r24
     2e8:	c9 f0       	breq	.+50     	; 0x31c <_ZN14HardwareSerial5flushEv+0x3e>
     2ea:	ea 89       	ldd	r30, Y+18	; 0x12
     2ec:	fb 89       	ldd	r31, Y+19	; 0x13
     2ee:	80 81       	ld	r24, Z
     2f0:	85 fd       	sbrc	r24, 5
     2f2:	05 c0       	rjmp	.+10     	; 0x2fe <_ZN14HardwareSerial5flushEv+0x20>
     2f4:	a8 89       	ldd	r26, Y+16	; 0x10
     2f6:	b9 89       	ldd	r27, Y+17	; 0x11
     2f8:	8c 91       	ld	r24, X
     2fa:	86 fd       	sbrc	r24, 6
     2fc:	0f c0       	rjmp	.+30     	; 0x31c <_ZN14HardwareSerial5flushEv+0x3e>
     2fe:	0f b6       	in	r0, 0x3f	; 63
     300:	07 fc       	sbrc	r0, 7
     302:	f5 cf       	rjmp	.-22     	; 0x2ee <_ZN14HardwareSerial5flushEv+0x10>
     304:	80 81       	ld	r24, Z
     306:	85 ff       	sbrs	r24, 5
     308:	f2 cf       	rjmp	.-28     	; 0x2ee <_ZN14HardwareSerial5flushEv+0x10>
     30a:	a8 89       	ldd	r26, Y+16	; 0x10
     30c:	b9 89       	ldd	r27, Y+17	; 0x11
     30e:	8c 91       	ld	r24, X
     310:	85 ff       	sbrs	r24, 5
     312:	ed cf       	rjmp	.-38     	; 0x2ee <_ZN14HardwareSerial5flushEv+0x10>
     314:	ce 01       	movw	r24, r28
     316:	0e 94 00 01 	call	0x200	; 0x200 <_ZN14HardwareSerial17_tx_udr_empty_irqEv>
     31a:	e7 cf       	rjmp	.-50     	; 0x2ea <_ZN14HardwareSerial5flushEv+0xc>
     31c:	df 91       	pop	r29
     31e:	cf 91       	pop	r28
     320:	08 95       	ret

00000322 <_Z14serialEventRunv>:
     322:	80 e0       	ldi	r24, 0x00	; 0
     324:	90 e0       	ldi	r25, 0x00	; 0
     326:	89 2b       	or	r24, r25
     328:	29 f0       	breq	.+10     	; 0x334 <_Z14serialEventRunv+0x12>
     32a:	0e 94 f6 00 	call	0x1ec	; 0x1ec <_Z17Serial0_availablev>
     32e:	81 11       	cpse	r24, r1
     330:	0c 94 00 00 	jmp	0	; 0x0 <__vectors>
     334:	08 95       	ret

00000336 <_ZN5Print5writeEPKc.constprop.10>:
     336:	61 15       	cp	r22, r1
     338:	71 05       	cpc	r23, r1
     33a:	79 f0       	breq	.+30     	; 0x35a <_ZN5Print5writeEPKc.constprop.10+0x24>
     33c:	fb 01       	movw	r30, r22
     33e:	01 90       	ld	r0, Z+
     340:	00 20       	and	r0, r0
     342:	e9 f7       	brne	.-6      	; 0x33e <_ZN5Print5writeEPKc.constprop.10+0x8>
     344:	31 97       	sbiw	r30, 0x01	; 1
     346:	af 01       	movw	r20, r30
     348:	46 1b       	sub	r20, r22
     34a:	57 0b       	sbc	r21, r23
     34c:	dc 01       	movw	r26, r24
     34e:	ed 91       	ld	r30, X+
     350:	fc 91       	ld	r31, X
     352:	02 80       	ldd	r0, Z+2	; 0x02
     354:	f3 81       	ldd	r31, Z+3	; 0x03
     356:	e0 2d       	mov	r30, r0
     358:	09 94       	ijmp
     35a:	80 e0       	ldi	r24, 0x00	; 0
     35c:	90 e0       	ldi	r25, 0x00	; 0
     35e:	08 95       	ret

00000360 <_ZN5Print11printNumberEmh.constprop.7>:
     360:	8f 92       	push	r8
     362:	9f 92       	push	r9
     364:	af 92       	push	r10
     366:	bf 92       	push	r11
     368:	ef 92       	push	r14
     36a:	ff 92       	push	r15
     36c:	0f 93       	push	r16
     36e:	1f 93       	push	r17
     370:	cf 93       	push	r28
     372:	df 93       	push	r29
     374:	cd b7       	in	r28, 0x3d	; 61
     376:	de b7       	in	r29, 0x3e	; 62
     378:	a1 97       	sbiw	r28, 0x21	; 33
     37a:	0f b6       	in	r0, 0x3f	; 63
     37c:	f8 94       	cli
     37e:	de bf       	out	0x3e, r29	; 62
     380:	0f be       	out	0x3f, r0	; 63
     382:	cd bf       	out	0x3d, r28	; 61
     384:	7c 01       	movw	r14, r24
     386:	fa 01       	movw	r30, r20
     388:	cb 01       	movw	r24, r22
     38a:	19 a2       	std	Y+33, r1	; 0x21
     38c:	22 30       	cpi	r18, 0x02	; 2
     38e:	08 f4       	brcc	.+2      	; 0x392 <_ZN5Print11printNumberEmh.constprop.7+0x32>
     390:	2a e0       	ldi	r18, 0x0A	; 10
     392:	8e 01       	movw	r16, r28
     394:	0f 5d       	subi	r16, 0xDF	; 223
     396:	1f 4f       	sbci	r17, 0xFF	; 255
     398:	82 2e       	mov	r8, r18
     39a:	91 2c       	mov	r9, r1
     39c:	a1 2c       	mov	r10, r1
     39e:	b1 2c       	mov	r11, r1
     3a0:	bf 01       	movw	r22, r30
     3a2:	a5 01       	movw	r20, r10
     3a4:	94 01       	movw	r18, r8
     3a6:	0e 94 a9 0e 	call	0x1d52	; 0x1d52 <__udivmodsi4>
     3aa:	f9 01       	movw	r30, r18
     3ac:	ca 01       	movw	r24, r20
     3ae:	01 50       	subi	r16, 0x01	; 1
     3b0:	11 09       	sbc	r17, r1
     3b2:	6a 30       	cpi	r22, 0x0A	; 10
     3b4:	14 f4       	brge	.+4      	; 0x3ba <_ZN5Print11printNumberEmh.constprop.7+0x5a>
     3b6:	60 5d       	subi	r22, 0xD0	; 208
     3b8:	01 c0       	rjmp	.+2      	; 0x3bc <_ZN5Print11printNumberEmh.constprop.7+0x5c>
     3ba:	69 5c       	subi	r22, 0xC9	; 201
     3bc:	d8 01       	movw	r26, r16
     3be:	6c 93       	st	X, r22
     3c0:	23 2b       	or	r18, r19
     3c2:	24 2b       	or	r18, r20
     3c4:	25 2b       	or	r18, r21
     3c6:	61 f7       	brne	.-40     	; 0x3a0 <_ZN5Print11printNumberEmh.constprop.7+0x40>
     3c8:	b8 01       	movw	r22, r16
     3ca:	c7 01       	movw	r24, r14
     3cc:	0e 94 9b 01 	call	0x336	; 0x336 <_ZN5Print5writeEPKc.constprop.10>
     3d0:	a1 96       	adiw	r28, 0x21	; 33
     3d2:	0f b6       	in	r0, 0x3f	; 63
     3d4:	f8 94       	cli
     3d6:	de bf       	out	0x3e, r29	; 62
     3d8:	0f be       	out	0x3f, r0	; 63
     3da:	cd bf       	out	0x3d, r28	; 61
     3dc:	df 91       	pop	r29
     3de:	cf 91       	pop	r28
     3e0:	1f 91       	pop	r17
     3e2:	0f 91       	pop	r16
     3e4:	ff 90       	pop	r15
     3e6:	ef 90       	pop	r14
     3e8:	bf 90       	pop	r11
     3ea:	af 90       	pop	r10
     3ec:	9f 90       	pop	r9
     3ee:	8f 90       	pop	r8
     3f0:	08 95       	ret

000003f2 <__cxa_pure_virtual>:
     3f2:	0e 94 cb 0e 	call	0x1d96	; 0x1d96 <abort>

000003f6 <digitalWrite>:
     3f6:	90 e0       	ldi	r25, 0x00	; 0
     3f8:	fc 01       	movw	r30, r24
     3fa:	ec 55       	subi	r30, 0x5C	; 92
     3fc:	ff 4f       	sbci	r31, 0xFF	; 255
     3fe:	24 91       	lpm	r18, Z
     400:	fc 01       	movw	r30, r24
     402:	e0 57       	subi	r30, 0x70	; 112
     404:	ff 4f       	sbci	r31, 0xFF	; 255
     406:	34 91       	lpm	r19, Z
     408:	fc 01       	movw	r30, r24
     40a:	e4 58       	subi	r30, 0x84	; 132
     40c:	ff 4f       	sbci	r31, 0xFF	; 255
     40e:	e4 91       	lpm	r30, Z
     410:	ee 23       	and	r30, r30
     412:	09 f4       	brne	.+2      	; 0x416 <__LOCK_REGION_LENGTH__+0x16>
     414:	3c c0       	rjmp	.+120    	; 0x48e <__LOCK_REGION_LENGTH__+0x8e>
     416:	22 23       	and	r18, r18
     418:	39 f1       	breq	.+78     	; 0x468 <__LOCK_REGION_LENGTH__+0x68>
     41a:	23 30       	cpi	r18, 0x03	; 3
     41c:	91 f0       	breq	.+36     	; 0x442 <__LOCK_REGION_LENGTH__+0x42>
     41e:	38 f4       	brcc	.+14     	; 0x42e <__LOCK_REGION_LENGTH__+0x2e>
     420:	21 30       	cpi	r18, 0x01	; 1
     422:	a9 f0       	breq	.+42     	; 0x44e <__LOCK_REGION_LENGTH__+0x4e>
     424:	22 30       	cpi	r18, 0x02	; 2
     426:	01 f5       	brne	.+64     	; 0x468 <__LOCK_REGION_LENGTH__+0x68>
     428:	84 b5       	in	r24, 0x24	; 36
     42a:	8f 7d       	andi	r24, 0xDF	; 223
     42c:	12 c0       	rjmp	.+36     	; 0x452 <__LOCK_REGION_LENGTH__+0x52>
     42e:	27 30       	cpi	r18, 0x07	; 7
     430:	91 f0       	breq	.+36     	; 0x456 <__LOCK_REGION_LENGTH__+0x56>
     432:	28 30       	cpi	r18, 0x08	; 8
     434:	a1 f0       	breq	.+40     	; 0x45e <__LOCK_REGION_LENGTH__+0x5e>
     436:	24 30       	cpi	r18, 0x04	; 4
     438:	b9 f4       	brne	.+46     	; 0x468 <__LOCK_REGION_LENGTH__+0x68>
     43a:	80 91 80 00 	lds	r24, 0x0080	; 0x800080 <__TEXT_REGION_LENGTH__+0x7e0080>
     43e:	8f 7d       	andi	r24, 0xDF	; 223
     440:	03 c0       	rjmp	.+6      	; 0x448 <__LOCK_REGION_LENGTH__+0x48>
     442:	80 91 80 00 	lds	r24, 0x0080	; 0x800080 <__TEXT_REGION_LENGTH__+0x7e0080>
     446:	8f 77       	andi	r24, 0x7F	; 127
     448:	80 93 80 00 	sts	0x0080, r24	; 0x800080 <__TEXT_REGION_LENGTH__+0x7e0080>
     44c:	0d c0       	rjmp	.+26     	; 0x468 <__LOCK_REGION_LENGTH__+0x68>
     44e:	84 b5       	in	r24, 0x24	; 36
     450:	8f 77       	andi	r24, 0x7F	; 127
     452:	84 bd       	out	0x24, r24	; 36
     454:	09 c0       	rjmp	.+18     	; 0x468 <__LOCK_REGION_LENGTH__+0x68>
     456:	80 91 b0 00 	lds	r24, 0x00B0	; 0x8000b0 <__TEXT_REGION_LENGTH__+0x7e00b0>
     45a:	8f 77       	andi	r24, 0x7F	; 127
     45c:	03 c0       	rjmp	.+6      	; 0x464 <__LOCK_REGION_LENGTH__+0x64>
     45e:	80 91 b0 00 	lds	r24, 0x00B0	; 0x8000b0 <__TEXT_REGION_LENGTH__+0x7e00b0>
     462:	8f 7d       	andi	r24, 0xDF	; 223
     464:	80 93 b0 00 	sts	0x00B0, r24	; 0x8000b0 <__TEXT_REGION_LENGTH__+0x7e00b0>
     468:	f0 e0       	ldi	r31, 0x00	; 0
     46a:	ee 0f       	add	r30, r30
     46c:	ff 1f       	adc	r31, r31
     46e:	ee 58       	subi	r30, 0x8E	; 142
     470:	ff 4f       	sbci	r31, 0xFF	; 255
     472:	a5 91       	lpm	r26, Z+
     474:	b4 91       	lpm	r27, Z
     476:	9f b7       	in	r25, 0x3f	; 63
     478:	f8 94       	cli
     47a:	61 11       	cpse	r22, r1
     47c:	04 c0       	rjmp	.+8      	; 0x486 <__LOCK_REGION_LENGTH__+0x86>
     47e:	8c 91       	ld	r24, X
     480:	30 95       	com	r19
     482:	38 23       	and	r19, r24
     484:	02 c0       	rjmp	.+4      	; 0x48a <__LOCK_REGION_LENGTH__+0x8a>
     486:	ec 91       	ld	r30, X
     488:	3e 2b       	or	r19, r30
     48a:	3c 93       	st	X, r19
     48c:	9f bf       	out	0x3f, r25	; 63
     48e:	08 95       	ret

00000490 <pinMode>:
     490:	cf 93       	push	r28
     492:	df 93       	push	r29
     494:	90 e0       	ldi	r25, 0x00	; 0
     496:	fc 01       	movw	r30, r24
     498:	e0 57       	subi	r30, 0x70	; 112
     49a:	ff 4f       	sbci	r31, 0xFF	; 255
     49c:	24 91       	lpm	r18, Z
     49e:	fc 01       	movw	r30, r24
     4a0:	e4 58       	subi	r30, 0x84	; 132
     4a2:	ff 4f       	sbci	r31, 0xFF	; 255
     4a4:	84 91       	lpm	r24, Z
     4a6:	88 23       	and	r24, r24
     4a8:	61 f1       	breq	.+88     	; 0x502 <pinMode+0x72>
     4aa:	90 e0       	ldi	r25, 0x00	; 0
     4ac:	88 0f       	add	r24, r24
     4ae:	99 1f       	adc	r25, r25
     4b0:	fc 01       	movw	r30, r24
     4b2:	e8 59       	subi	r30, 0x98	; 152
     4b4:	ff 4f       	sbci	r31, 0xFF	; 255
     4b6:	c5 91       	lpm	r28, Z+
     4b8:	d4 91       	lpm	r29, Z
     4ba:	fc 01       	movw	r30, r24
     4bc:	ee 58       	subi	r30, 0x8E	; 142
     4be:	ff 4f       	sbci	r31, 0xFF	; 255
     4c0:	a5 91       	lpm	r26, Z+
     4c2:	b4 91       	lpm	r27, Z
     4c4:	61 11       	cpse	r22, r1
     4c6:	09 c0       	rjmp	.+18     	; 0x4da <pinMode+0x4a>
     4c8:	9f b7       	in	r25, 0x3f	; 63
     4ca:	f8 94       	cli
     4cc:	88 81       	ld	r24, Y
     4ce:	20 95       	com	r18
     4d0:	82 23       	and	r24, r18
     4d2:	88 83       	st	Y, r24
     4d4:	ec 91       	ld	r30, X
     4d6:	2e 23       	and	r18, r30
     4d8:	0b c0       	rjmp	.+22     	; 0x4f0 <pinMode+0x60>
     4da:	62 30       	cpi	r22, 0x02	; 2
     4dc:	61 f4       	brne	.+24     	; 0x4f6 <pinMode+0x66>
     4de:	9f b7       	in	r25, 0x3f	; 63
     4e0:	f8 94       	cli
     4e2:	88 81       	ld	r24, Y
     4e4:	32 2f       	mov	r19, r18
     4e6:	30 95       	com	r19
     4e8:	83 23       	and	r24, r19
     4ea:	88 83       	st	Y, r24
     4ec:	ec 91       	ld	r30, X
     4ee:	2e 2b       	or	r18, r30
     4f0:	2c 93       	st	X, r18
     4f2:	9f bf       	out	0x3f, r25	; 63
     4f4:	06 c0       	rjmp	.+12     	; 0x502 <pinMode+0x72>
     4f6:	8f b7       	in	r24, 0x3f	; 63
     4f8:	f8 94       	cli
     4fa:	e8 81       	ld	r30, Y
     4fc:	2e 2b       	or	r18, r30
     4fe:	28 83       	st	Y, r18
     500:	8f bf       	out	0x3f, r24	; 63
     502:	df 91       	pop	r29
     504:	cf 91       	pop	r28
     506:	08 95       	ret

00000508 <delayMicroseconds>:
     508:	82 30       	cpi	r24, 0x02	; 2
     50a:	91 05       	cpc	r25, r1
     50c:	38 f0       	brcs	.+14     	; 0x51c <delayMicroseconds+0x14>
     50e:	88 0f       	add	r24, r24
     510:	99 1f       	adc	r25, r25
     512:	88 0f       	add	r24, r24
     514:	99 1f       	adc	r25, r25
     516:	05 97       	sbiw	r24, 0x05	; 5
     518:	01 97       	sbiw	r24, 0x01	; 1
     51a:	f1 f7       	brne	.-4      	; 0x518 <delayMicroseconds+0x10>
     51c:	08 95       	ret

0000051e <__vector_16>:
     51e:	1f 92       	push	r1
     520:	0f 92       	push	r0
     522:	0f b6       	in	r0, 0x3f	; 63
     524:	0f 92       	push	r0
     526:	11 24       	eor	r1, r1
     528:	2f 93       	push	r18
     52a:	3f 93       	push	r19
     52c:	8f 93       	push	r24
     52e:	9f 93       	push	r25
     530:	af 93       	push	r26
     532:	bf 93       	push	r27
     534:	80 91 38 02 	lds	r24, 0x0238	; 0x800238 <timer0_millis>
     538:	90 91 39 02 	lds	r25, 0x0239	; 0x800239 <timer0_millis+0x1>
     53c:	a0 91 3a 02 	lds	r26, 0x023A	; 0x80023a <timer0_millis+0x2>
     540:	b0 91 3b 02 	lds	r27, 0x023B	; 0x80023b <timer0_millis+0x3>
     544:	30 91 37 02 	lds	r19, 0x0237	; 0x800237 <timer0_fract>
     548:	23 e0       	ldi	r18, 0x03	; 3
     54a:	23 0f       	add	r18, r19
     54c:	2d 37       	cpi	r18, 0x7D	; 125
     54e:	20 f4       	brcc	.+8      	; 0x558 <__vector_16+0x3a>
     550:	01 96       	adiw	r24, 0x01	; 1
     552:	a1 1d       	adc	r26, r1
     554:	b1 1d       	adc	r27, r1
     556:	05 c0       	rjmp	.+10     	; 0x562 <__vector_16+0x44>
     558:	26 e8       	ldi	r18, 0x86	; 134
     55a:	23 0f       	add	r18, r19
     55c:	02 96       	adiw	r24, 0x02	; 2
     55e:	a1 1d       	adc	r26, r1
     560:	b1 1d       	adc	r27, r1
     562:	20 93 37 02 	sts	0x0237, r18	; 0x800237 <timer0_fract>
     566:	80 93 38 02 	sts	0x0238, r24	; 0x800238 <timer0_millis>
     56a:	90 93 39 02 	sts	0x0239, r25	; 0x800239 <timer0_millis+0x1>
     56e:	a0 93 3a 02 	sts	0x023A, r26	; 0x80023a <timer0_millis+0x2>
     572:	b0 93 3b 02 	sts	0x023B, r27	; 0x80023b <timer0_millis+0x3>
     576:	80 91 33 02 	lds	r24, 0x0233	; 0x800233 <timer0_overflow_count>
     57a:	90 91 34 02 	lds	r25, 0x0234	; 0x800234 <timer0_overflow_count+0x1>
     57e:	a0 91 35 02 	lds	r26, 0x0235	; 0x800235 <timer0_overflow_count+0x2>
     582:	b0 91 36 02 	lds	r27, 0x0236	; 0x800236 <timer0_overflow_count+0x3>
     586:	01 96       	adiw	r24, 0x01	; 1
     588:	a1 1d       	adc	r26, r1
     58a:	b1 1d       	adc	r27, r1
     58c:	80 93 33 02 	sts	0x0233, r24	; 0x800233 <timer0_overflow_count>
     590:	90 93 34 02 	sts	0x0234, r25	; 0x800234 <timer0_overflow_count+0x1>
     594:	a0 93 35 02 	sts	0x0235, r26	; 0x800235 <timer0_overflow_count+0x2>
     598:	b0 93 36 02 	sts	0x0236, r27	; 0x800236 <timer0_overflow_count+0x3>
     59c:	bf 91       	pop	r27
     59e:	af 91       	pop	r26
     5a0:	9f 91       	pop	r25
     5a2:	8f 91       	pop	r24
     5a4:	3f 91       	pop	r19
     5a6:	2f 91       	pop	r18
     5a8:	0f 90       	pop	r0
     5aa:	0f be       	out	0x3f, r0	; 63
     5ac:	0f 90       	pop	r0
     5ae:	1f 90       	pop	r1
     5b0:	18 95       	reti

000005b2 <_ZN5Print7printlnEii>:
     5b2:	cf 92       	push	r12
     5b4:	df 92       	push	r13
     5b6:	ef 92       	push	r14
     5b8:	ff 92       	push	r15
     5ba:	0f 93       	push	r16
     5bc:	1f 93       	push	r17
     5be:	cf 93       	push	r28
     5c0:	df 93       	push	r29
     5c2:	ec 01       	movw	r28, r24
     5c4:	41 15       	cp	r20, r1
     5c6:	51 05       	cpc	r21, r1
     5c8:	39 f4       	brne	.+14     	; 0x5d8 <_ZN5Print7printlnEii+0x26>
     5ca:	e8 81       	ld	r30, Y
     5cc:	f9 81       	ldd	r31, Y+1	; 0x01
     5ce:	01 90       	ld	r0, Z+
     5d0:	f0 81       	ld	r31, Z
     5d2:	e0 2d       	mov	r30, r0
     5d4:	09 95       	icall
     5d6:	23 c0       	rjmp	.+70     	; 0x61e <_ZN5Print7printlnEii+0x6c>
     5d8:	6b 01       	movw	r12, r22
     5da:	77 0f       	add	r23, r23
     5dc:	ee 08       	sbc	r14, r14
     5de:	ff 08       	sbc	r15, r15
     5e0:	4a 30       	cpi	r20, 0x0A	; 10
     5e2:	51 05       	cpc	r21, r1
     5e4:	b1 f4       	brne	.+44     	; 0x612 <_ZN5Print7printlnEii+0x60>
     5e6:	f7 fe       	sbrs	r15, 7
     5e8:	12 c0       	rjmp	.+36     	; 0x60e <_ZN5Print7printlnEii+0x5c>
     5ea:	6d e2       	ldi	r22, 0x2D	; 45
     5ec:	0e 94 88 00 	call	0x110	; 0x110 <_ZN5Print5printEc.constprop.9>
     5f0:	8c 01       	movw	r16, r24
     5f2:	44 27       	eor	r20, r20
     5f4:	55 27       	eor	r21, r21
     5f6:	ba 01       	movw	r22, r20
     5f8:	4c 19       	sub	r20, r12
     5fa:	5d 09       	sbc	r21, r13
     5fc:	6e 09       	sbc	r22, r14
     5fe:	7f 09       	sbc	r23, r15
     600:	2a e0       	ldi	r18, 0x0A	; 10
     602:	ce 01       	movw	r24, r28
     604:	0e 94 b0 01 	call	0x360	; 0x360 <_ZN5Print11printNumberEmh.constprop.7>
     608:	08 0f       	add	r16, r24
     60a:	19 1f       	adc	r17, r25
     60c:	09 c0       	rjmp	.+18     	; 0x620 <_ZN5Print7printlnEii+0x6e>
     60e:	2a e0       	ldi	r18, 0x0A	; 10
     610:	01 c0       	rjmp	.+2      	; 0x614 <_ZN5Print7printlnEii+0x62>
     612:	24 2f       	mov	r18, r20
     614:	b7 01       	movw	r22, r14
     616:	a6 01       	movw	r20, r12
     618:	ce 01       	movw	r24, r28
     61a:	0e 94 b0 01 	call	0x360	; 0x360 <_ZN5Print11printNumberEmh.constprop.7>
     61e:	8c 01       	movw	r16, r24
     620:	66 e8       	ldi	r22, 0x86	; 134
     622:	71 e0       	ldi	r23, 0x01	; 1
     624:	ce 01       	movw	r24, r28
     626:	0e 94 9b 01 	call	0x336	; 0x336 <_ZN5Print5writeEPKc.constprop.10>
     62a:	80 0f       	add	r24, r16
     62c:	91 1f       	adc	r25, r17
     62e:	df 91       	pop	r29
     630:	cf 91       	pop	r28
     632:	1f 91       	pop	r17
     634:	0f 91       	pop	r16
     636:	ff 90       	pop	r15
     638:	ef 90       	pop	r14
     63a:	df 90       	pop	r13
     63c:	cf 90       	pop	r12
     63e:	08 95       	ret

00000640 <_ZN5Print7printlnEPKc>:
     640:	0f 93       	push	r16
     642:	1f 93       	push	r17
     644:	cf 93       	push	r28
     646:	df 93       	push	r29
     648:	ec 01       	movw	r28, r24
     64a:	0e 94 9b 01 	call	0x336	; 0x336 <_ZN5Print5writeEPKc.constprop.10>
     64e:	8c 01       	movw	r16, r24
     650:	66 e8       	ldi	r22, 0x86	; 134
     652:	71 e0       	ldi	r23, 0x01	; 1
     654:	ce 01       	movw	r24, r28
     656:	0e 94 9b 01 	call	0x336	; 0x336 <_ZN5Print5writeEPKc.constprop.10>
     65a:	80 0f       	add	r24, r16
     65c:	91 1f       	adc	r25, r17
     65e:	df 91       	pop	r29
     660:	cf 91       	pop	r28
     662:	1f 91       	pop	r17
     664:	0f 91       	pop	r16
     666:	08 95       	ret

00000668 <_ZN5Print5printEdi>:
     668:	7f 92       	push	r7
     66a:	8f 92       	push	r8
     66c:	9f 92       	push	r9
     66e:	af 92       	push	r10
     670:	bf 92       	push	r11
     672:	cf 92       	push	r12
     674:	df 92       	push	r13
     676:	ef 92       	push	r14
     678:	ff 92       	push	r15
     67a:	0f 93       	push	r16
     67c:	1f 93       	push	r17
     67e:	cf 93       	push	r28
     680:	df 93       	push	r29
     682:	8c 01       	movw	r16, r24
     684:	6a 01       	movw	r12, r20
     686:	7b 01       	movw	r14, r22
     688:	72 2e       	mov	r7, r18
     68a:	9a 01       	movw	r18, r20
     68c:	ab 01       	movw	r20, r22
     68e:	c7 01       	movw	r24, r14
     690:	b6 01       	movw	r22, r12
     692:	0e 94 a4 0e 	call	0x1d48	; 0x1d48 <__unordsf2>
     696:	88 23       	and	r24, r24
     698:	19 f0       	breq	.+6      	; 0x6a0 <_ZN5Print5printEdi+0x38>
     69a:	69 e8       	ldi	r22, 0x89	; 137
     69c:	71 e0       	ldi	r23, 0x01	; 1
     69e:	27 c0       	rjmp	.+78     	; 0x6ee <_ZN5Print5printEdi+0x86>
     6a0:	46 01       	movw	r8, r12
     6a2:	57 01       	movw	r10, r14
     6a4:	e8 94       	clt
     6a6:	b7 f8       	bld	r11, 7
     6a8:	2f ef       	ldi	r18, 0xFF	; 255
     6aa:	3f ef       	ldi	r19, 0xFF	; 255
     6ac:	4f e7       	ldi	r20, 0x7F	; 127
     6ae:	5f e7       	ldi	r21, 0x7F	; 127
     6b0:	c5 01       	movw	r24, r10
     6b2:	b4 01       	movw	r22, r8
     6b4:	0e 94 a4 0e 	call	0x1d48	; 0x1d48 <__unordsf2>
     6b8:	81 11       	cpse	r24, r1
     6ba:	0d c0       	rjmp	.+26     	; 0x6d6 <_ZN5Print5printEdi+0x6e>
     6bc:	2f ef       	ldi	r18, 0xFF	; 255
     6be:	3f ef       	ldi	r19, 0xFF	; 255
     6c0:	4f e7       	ldi	r20, 0x7F	; 127
     6c2:	5f e7       	ldi	r21, 0x7F	; 127
     6c4:	c5 01       	movw	r24, r10
     6c6:	b4 01       	movw	r22, r8
     6c8:	0e 94 c5 0c 	call	0x198a	; 0x198a <__cmpsf2>
     6cc:	18 16       	cp	r1, r24
     6ce:	1c f4       	brge	.+6      	; 0x6d6 <_ZN5Print5printEdi+0x6e>
     6d0:	6d e8       	ldi	r22, 0x8D	; 141
     6d2:	71 e0       	ldi	r23, 0x01	; 1
     6d4:	0c c0       	rjmp	.+24     	; 0x6ee <_ZN5Print5printEdi+0x86>
     6d6:	2f ef       	ldi	r18, 0xFF	; 255
     6d8:	3f ef       	ldi	r19, 0xFF	; 255
     6da:	4f e7       	ldi	r20, 0x7F	; 127
     6dc:	5f e4       	ldi	r21, 0x4F	; 79
     6de:	c7 01       	movw	r24, r14
     6e0:	b6 01       	movw	r22, r12
     6e2:	0e 94 ee 0d 	call	0x1bdc	; 0x1bdc <__gesf2>
     6e6:	18 16       	cp	r1, r24
     6e8:	94 f4       	brge	.+36     	; 0x70e <_ZN5Print5printEdi+0xa6>
     6ea:	61 e9       	ldi	r22, 0x91	; 145
     6ec:	71 e0       	ldi	r23, 0x01	; 1
     6ee:	c8 01       	movw	r24, r16
     6f0:	df 91       	pop	r29
     6f2:	cf 91       	pop	r28
     6f4:	1f 91       	pop	r17
     6f6:	0f 91       	pop	r16
     6f8:	ff 90       	pop	r15
     6fa:	ef 90       	pop	r14
     6fc:	df 90       	pop	r13
     6fe:	cf 90       	pop	r12
     700:	bf 90       	pop	r11
     702:	af 90       	pop	r10
     704:	9f 90       	pop	r9
     706:	8f 90       	pop	r8
     708:	7f 90       	pop	r7
     70a:	0c 94 9b 01 	jmp	0x336	; 0x336 <_ZN5Print5writeEPKc.constprop.10>
     70e:	2f ef       	ldi	r18, 0xFF	; 255
     710:	3f ef       	ldi	r19, 0xFF	; 255
     712:	4f e7       	ldi	r20, 0x7F	; 127
     714:	5f ec       	ldi	r21, 0xCF	; 207
     716:	c7 01       	movw	r24, r14
     718:	b6 01       	movw	r22, r12
     71a:	0e 94 c5 0c 	call	0x198a	; 0x198a <__cmpsf2>
     71e:	87 fd       	sbrc	r24, 7
     720:	e4 cf       	rjmp	.-56     	; 0x6ea <_ZN5Print5printEdi+0x82>
     722:	20 e0       	ldi	r18, 0x00	; 0
     724:	30 e0       	ldi	r19, 0x00	; 0
     726:	a9 01       	movw	r20, r18
     728:	c7 01       	movw	r24, r14
     72a:	b6 01       	movw	r22, r12
     72c:	0e 94 c5 0c 	call	0x198a	; 0x198a <__cmpsf2>
     730:	87 ff       	sbrs	r24, 7
     732:	0a c0       	rjmp	.+20     	; 0x748 <_ZN5Print5printEdi+0xe0>
     734:	6d e2       	ldi	r22, 0x2D	; 45
     736:	c8 01       	movw	r24, r16
     738:	0e 94 88 00 	call	0x110	; 0x110 <_ZN5Print5printEc.constprop.9>
     73c:	ec 01       	movw	r28, r24
     73e:	f7 fa       	bst	r15, 7
     740:	f0 94       	com	r15
     742:	f7 f8       	bld	r15, 7
     744:	f0 94       	com	r15
     746:	02 c0       	rjmp	.+4      	; 0x74c <_ZN5Print5printEdi+0xe4>
     748:	c0 e0       	ldi	r28, 0x00	; 0
     74a:	d0 e0       	ldi	r29, 0x00	; 0
     74c:	b1 2c       	mov	r11, r1
     74e:	60 e0       	ldi	r22, 0x00	; 0
     750:	70 e0       	ldi	r23, 0x00	; 0
     752:	80 e0       	ldi	r24, 0x00	; 0
     754:	9f e3       	ldi	r25, 0x3F	; 63
     756:	b7 14       	cp	r11, r7
     758:	40 f4       	brcc	.+16     	; 0x76a <_ZN5Print5printEdi+0x102>
     75a:	20 e0       	ldi	r18, 0x00	; 0
     75c:	30 e0       	ldi	r19, 0x00	; 0
     75e:	40 e2       	ldi	r20, 0x20	; 32
     760:	51 e4       	ldi	r21, 0x41	; 65
     762:	0e 94 ca 0c 	call	0x1994	; 0x1994 <__divsf3>
     766:	b3 94       	inc	r11
     768:	f6 cf       	rjmp	.-20     	; 0x756 <_ZN5Print5printEdi+0xee>
     76a:	a7 01       	movw	r20, r14
     76c:	96 01       	movw	r18, r12
     76e:	0e 94 59 0c 	call	0x18b2	; 0x18b2 <__addsf3>
     772:	6b 01       	movw	r12, r22
     774:	7c 01       	movw	r14, r24
     776:	0e 94 75 0e 	call	0x1cea	; 0x1cea <__fixunssfsi>
     77a:	4b 01       	movw	r8, r22
     77c:	5c 01       	movw	r10, r24
     77e:	2a e0       	ldi	r18, 0x0A	; 10
     780:	ab 01       	movw	r20, r22
     782:	bc 01       	movw	r22, r24
     784:	c8 01       	movw	r24, r16
     786:	0e 94 b0 01 	call	0x360	; 0x360 <_ZN5Print11printNumberEmh.constprop.7>
     78a:	c8 0f       	add	r28, r24
     78c:	d9 1f       	adc	r29, r25
     78e:	77 20       	and	r7, r7
     790:	c1 f1       	breq	.+112    	; 0x802 <_ZN5Print5printEdi+0x19a>
     792:	c5 01       	movw	r24, r10
     794:	b4 01       	movw	r22, r8
     796:	0e 94 3c 0d 	call	0x1a78	; 0x1a78 <__floatunsisf>
     79a:	9b 01       	movw	r18, r22
     79c:	ac 01       	movw	r20, r24
     79e:	c7 01       	movw	r24, r14
     7a0:	b6 01       	movw	r22, r12
     7a2:	0e 94 58 0c 	call	0x18b0	; 0x18b0 <__subsf3>
     7a6:	6b 01       	movw	r12, r22
     7a8:	7c 01       	movw	r14, r24
     7aa:	6e e2       	ldi	r22, 0x2E	; 46
     7ac:	c8 01       	movw	r24, r16
     7ae:	0e 94 88 00 	call	0x110	; 0x110 <_ZN5Print5printEc.constprop.9>
     7b2:	c8 0f       	add	r28, r24
     7b4:	d9 1f       	adc	r29, r25
     7b6:	20 e0       	ldi	r18, 0x00	; 0
     7b8:	30 e0       	ldi	r19, 0x00	; 0
     7ba:	40 e2       	ldi	r20, 0x20	; 32
     7bc:	51 e4       	ldi	r21, 0x41	; 65
     7be:	c7 01       	movw	r24, r14
     7c0:	b6 01       	movw	r22, r12
     7c2:	0e 94 f3 0d 	call	0x1be6	; 0x1be6 <__mulsf3>
     7c6:	4b 01       	movw	r8, r22
     7c8:	5c 01       	movw	r10, r24
     7ca:	0e 94 75 0e 	call	0x1cea	; 0x1cea <__fixunssfsi>
     7ce:	6b 01       	movw	r12, r22
     7d0:	e1 2c       	mov	r14, r1
     7d2:	f1 2c       	mov	r15, r1
     7d4:	2a e0       	ldi	r18, 0x0A	; 10
     7d6:	b7 01       	movw	r22, r14
     7d8:	a6 01       	movw	r20, r12
     7da:	c8 01       	movw	r24, r16
     7dc:	0e 94 b0 01 	call	0x360	; 0x360 <_ZN5Print11printNumberEmh.constprop.7>
     7e0:	c8 0f       	add	r28, r24
     7e2:	d9 1f       	adc	r29, r25
     7e4:	c7 01       	movw	r24, r14
     7e6:	b6 01       	movw	r22, r12
     7e8:	0e 94 3c 0d 	call	0x1a78	; 0x1a78 <__floatunsisf>
     7ec:	9b 01       	movw	r18, r22
     7ee:	ac 01       	movw	r20, r24
     7f0:	c5 01       	movw	r24, r10
     7f2:	b4 01       	movw	r22, r8
     7f4:	0e 94 58 0c 	call	0x18b0	; 0x18b0 <__subsf3>
     7f8:	6b 01       	movw	r12, r22
     7fa:	7c 01       	movw	r14, r24
     7fc:	7a 94       	dec	r7
     7fe:	71 10       	cpse	r7, r1
     800:	da cf       	rjmp	.-76     	; 0x7b6 <_ZN5Print5printEdi+0x14e>
     802:	ce 01       	movw	r24, r28
     804:	df 91       	pop	r29
     806:	cf 91       	pop	r28
     808:	1f 91       	pop	r17
     80a:	0f 91       	pop	r16
     80c:	ff 90       	pop	r15
     80e:	ef 90       	pop	r14
     810:	df 90       	pop	r13
     812:	cf 90       	pop	r12
     814:	bf 90       	pop	r11
     816:	af 90       	pop	r10
     818:	9f 90       	pop	r9
     81a:	8f 90       	pop	r8
     81c:	7f 90       	pop	r7
     81e:	08 95       	ret

00000820 <_ZN5Print5printEPKc>:
     820:	0c 94 9b 01 	jmp	0x336	; 0x336 <_ZN5Print5writeEPKc.constprop.10>

00000824 <__vector_19>:
     824:	1f 92       	push	r1
     826:	0f 92       	push	r0
     828:	0f b6       	in	r0, 0x3f	; 63
     82a:	0f 92       	push	r0
     82c:	11 24       	eor	r1, r1
     82e:	2f 93       	push	r18
     830:	3f 93       	push	r19
     832:	4f 93       	push	r20
     834:	5f 93       	push	r21
     836:	6f 93       	push	r22
     838:	7f 93       	push	r23
     83a:	8f 93       	push	r24
     83c:	9f 93       	push	r25
     83e:	af 93       	push	r26
     840:	bf 93       	push	r27
     842:	ef 93       	push	r30
     844:	ff 93       	push	r31
     846:	86 e9       	ldi	r24, 0x96	; 150
     848:	91 e0       	ldi	r25, 0x01	; 1
     84a:	0e 94 00 01 	call	0x200	; 0x200 <_ZN14HardwareSerial17_tx_udr_empty_irqEv>
     84e:	ff 91       	pop	r31
     850:	ef 91       	pop	r30
     852:	bf 91       	pop	r27
     854:	af 91       	pop	r26
     856:	9f 91       	pop	r25
     858:	8f 91       	pop	r24
     85a:	7f 91       	pop	r23
     85c:	6f 91       	pop	r22
     85e:	5f 91       	pop	r21
     860:	4f 91       	pop	r20
     862:	3f 91       	pop	r19
     864:	2f 91       	pop	r18
     866:	0f 90       	pop	r0
     868:	0f be       	out	0x3f, r0	; 63
     86a:	0f 90       	pop	r0
     86c:	1f 90       	pop	r1
     86e:	18 95       	reti

00000870 <__vector_18>:
     870:	1f 92       	push	r1
     872:	0f 92       	push	r0
     874:	0f b6       	in	r0, 0x3f	; 63
     876:	0f 92       	push	r0
     878:	11 24       	eor	r1, r1
     87a:	2f 93       	push	r18
     87c:	8f 93       	push	r24
     87e:	9f 93       	push	r25
     880:	ef 93       	push	r30
     882:	ff 93       	push	r31
     884:	e0 91 a6 01 	lds	r30, 0x01A6	; 0x8001a6 <__data_end+0x10>
     888:	f0 91 a7 01 	lds	r31, 0x01A7	; 0x8001a7 <__data_end+0x11>
     88c:	80 81       	ld	r24, Z
     88e:	e0 91 ac 01 	lds	r30, 0x01AC	; 0x8001ac <__data_end+0x16>
     892:	f0 91 ad 01 	lds	r31, 0x01AD	; 0x8001ad <__data_end+0x17>
     896:	82 fd       	sbrc	r24, 2
     898:	12 c0       	rjmp	.+36     	; 0x8be <__vector_18+0x4e>
     89a:	90 81       	ld	r25, Z
     89c:	80 91 af 01 	lds	r24, 0x01AF	; 0x8001af <__data_end+0x19>
     8a0:	8f 5f       	subi	r24, 0xFF	; 255
     8a2:	8f 73       	andi	r24, 0x3F	; 63
     8a4:	20 91 b0 01 	lds	r18, 0x01B0	; 0x8001b0 <__data_end+0x1a>
     8a8:	82 17       	cp	r24, r18
     8aa:	51 f0       	breq	.+20     	; 0x8c0 <__vector_18+0x50>
     8ac:	e0 91 af 01 	lds	r30, 0x01AF	; 0x8001af <__data_end+0x19>
     8b0:	f0 e0       	ldi	r31, 0x00	; 0
     8b2:	ea 56       	subi	r30, 0x6A	; 106
     8b4:	fe 4f       	sbci	r31, 0xFE	; 254
     8b6:	95 8f       	std	Z+29, r25	; 0x1d
     8b8:	80 93 af 01 	sts	0x01AF, r24	; 0x8001af <__data_end+0x19>
     8bc:	01 c0       	rjmp	.+2      	; 0x8c0 <__vector_18+0x50>
     8be:	80 81       	ld	r24, Z
     8c0:	ff 91       	pop	r31
     8c2:	ef 91       	pop	r30
     8c4:	9f 91       	pop	r25
     8c6:	8f 91       	pop	r24
     8c8:	2f 91       	pop	r18
     8ca:	0f 90       	pop	r0
     8cc:	0f be       	out	0x3f, r0	; 63
     8ce:	0f 90       	pop	r0
     8d0:	1f 90       	pop	r1
     8d2:	18 95       	reti

000008d4 <_ZN14HardwareSerial5beginEmh>:
     8d4:	cf 92       	push	r12
     8d6:	df 92       	push	r13
     8d8:	ef 92       	push	r14
     8da:	ff 92       	push	r15
     8dc:	1f 93       	push	r17
     8de:	cf 93       	push	r28
     8e0:	df 93       	push	r29
     8e2:	ec 01       	movw	r28, r24
     8e4:	6a 01       	movw	r12, r20
     8e6:	7b 01       	movw	r14, r22
     8e8:	12 2f       	mov	r17, r18
     8ea:	e8 89       	ldd	r30, Y+16	; 0x10
     8ec:	f9 89       	ldd	r31, Y+17	; 0x11
     8ee:	82 e0       	ldi	r24, 0x02	; 2
     8f0:	80 83       	st	Z, r24
     8f2:	41 15       	cp	r20, r1
     8f4:	51 4e       	sbci	r21, 0xE1	; 225
     8f6:	61 05       	cpc	r22, r1
     8f8:	71 05       	cpc	r23, r1
     8fa:	b1 f0       	breq	.+44     	; 0x928 <__stack+0x29>
     8fc:	60 e0       	ldi	r22, 0x00	; 0
     8fe:	79 e0       	ldi	r23, 0x09	; 9
     900:	8d e3       	ldi	r24, 0x3D	; 61
     902:	90 e0       	ldi	r25, 0x00	; 0
     904:	a7 01       	movw	r20, r14
     906:	96 01       	movw	r18, r12
     908:	0e 94 a9 0e 	call	0x1d52	; 0x1d52 <__udivmodsi4>
     90c:	da 01       	movw	r26, r20
     90e:	c9 01       	movw	r24, r18
     910:	01 97       	sbiw	r24, 0x01	; 1
     912:	a1 09       	sbc	r26, r1
     914:	b1 09       	sbc	r27, r1
     916:	b6 95       	lsr	r27
     918:	a7 95       	ror	r26
     91a:	97 95       	ror	r25
     91c:	87 95       	ror	r24
     91e:	9c 01       	movw	r18, r24
     920:	21 15       	cp	r18, r1
     922:	80 e1       	ldi	r24, 0x10	; 16
     924:	38 07       	cpc	r19, r24
     926:	a8 f0       	brcs	.+42     	; 0x952 <__stack+0x53>
     928:	e8 89       	ldd	r30, Y+16	; 0x10
     92a:	f9 89       	ldd	r31, Y+17	; 0x11
     92c:	10 82       	st	Z, r1
     92e:	60 e8       	ldi	r22, 0x80	; 128
     930:	74 e8       	ldi	r23, 0x84	; 132
     932:	8e e1       	ldi	r24, 0x1E	; 30
     934:	90 e0       	ldi	r25, 0x00	; 0
     936:	a7 01       	movw	r20, r14
     938:	96 01       	movw	r18, r12
     93a:	0e 94 a9 0e 	call	0x1d52	; 0x1d52 <__udivmodsi4>
     93e:	da 01       	movw	r26, r20
     940:	c9 01       	movw	r24, r18
     942:	01 97       	sbiw	r24, 0x01	; 1
     944:	a1 09       	sbc	r26, r1
     946:	b1 09       	sbc	r27, r1
     948:	b6 95       	lsr	r27
     94a:	a7 95       	ror	r26
     94c:	97 95       	ror	r25
     94e:	87 95       	ror	r24
     950:	9c 01       	movw	r18, r24
     952:	ec 85       	ldd	r30, Y+12	; 0x0c
     954:	fd 85       	ldd	r31, Y+13	; 0x0d
     956:	30 83       	st	Z, r19
     958:	ee 85       	ldd	r30, Y+14	; 0x0e
     95a:	ff 85       	ldd	r31, Y+15	; 0x0f
     95c:	20 83       	st	Z, r18
     95e:	18 8e       	std	Y+24, r1	; 0x18
     960:	ec 89       	ldd	r30, Y+20	; 0x14
     962:	fd 89       	ldd	r31, Y+21	; 0x15
     964:	10 83       	st	Z, r17
     966:	ea 89       	ldd	r30, Y+18	; 0x12
     968:	fb 89       	ldd	r31, Y+19	; 0x13
     96a:	80 81       	ld	r24, Z
     96c:	80 61       	ori	r24, 0x10	; 16
     96e:	80 83       	st	Z, r24
     970:	ea 89       	ldd	r30, Y+18	; 0x12
     972:	fb 89       	ldd	r31, Y+19	; 0x13
     974:	80 81       	ld	r24, Z
     976:	88 60       	ori	r24, 0x08	; 8
     978:	80 83       	st	Z, r24
     97a:	ea 89       	ldd	r30, Y+18	; 0x12
     97c:	fb 89       	ldd	r31, Y+19	; 0x13
     97e:	80 81       	ld	r24, Z
     980:	80 68       	ori	r24, 0x80	; 128
     982:	80 83       	st	Z, r24
     984:	ea 89       	ldd	r30, Y+18	; 0x12
     986:	fb 89       	ldd	r31, Y+19	; 0x13
     988:	80 81       	ld	r24, Z
     98a:	8f 7d       	andi	r24, 0xDF	; 223
     98c:	80 83       	st	Z, r24
     98e:	df 91       	pop	r29
     990:	cf 91       	pop	r28
     992:	1f 91       	pop	r17
     994:	ff 90       	pop	r15
     996:	ef 90       	pop	r14
     998:	df 90       	pop	r13
     99a:	cf 90       	pop	r12
     99c:	08 95       	ret

0000099e <_Z11process_adcv>:
	else
		return 0;
}

void process_adc()
{
     99e:	0f 93       	push	r16
     9a0:	1f 93       	push	r17
     9a2:	cf 93       	push	r28
     9a4:	df 93       	push	r29
     9a6:	cc e3       	ldi	r28, 0x3C	; 60
     9a8:	d2 e0       	ldi	r29, 0x02	; 2
     9aa:	08 e7       	ldi	r16, 0x78	; 120
     9ac:	12 e0       	ldi	r17, 0x02	; 2
	// Para cada canal en el adc_channel_cfg llamo a la funcion de callback que haya terminado la conversion
	int i = 0;
	for(i=0; i<MAX_CHANNELS; i++)
	{
		if(adc_channel_cfg[i].active)
     9ae:	8e 81       	ldd	r24, Y+6	; 0x06
     9b0:	9f 81       	ldd	r25, Y+7	; 0x07
     9b2:	89 2b       	or	r24, r25
     9b4:	41 f0       	breq	.+16     	; 0x9c6 <_Z11process_adcv+0x28>
		{
			if (adc_channel_cfg[i].finish_convertion)
     9b6:	88 85       	ldd	r24, Y+8	; 0x08
     9b8:	99 85       	ldd	r25, Y+9	; 0x09
     9ba:	89 2b       	or	r24, r25
     9bc:	21 f0       	breq	.+8      	; 0x9c6 <_Z11process_adcv+0x28>
			{
				fnqueue_add (adc_channel_cfg[i].callback);
     9be:	8a 81       	ldd	r24, Y+2	; 0x02
     9c0:	9b 81       	ldd	r25, Y+3	; 0x03
     9c2:	0e 94 36 06 	call	0xc6c	; 0xc6c <_Z11fnqueue_addPFvvE>
     9c6:	2a 96       	adiw	r28, 0x0a	; 10

void process_adc()
{
	// Para cada canal en el adc_channel_cfg llamo a la funcion de callback que haya terminado la conversion
	int i = 0;
	for(i=0; i<MAX_CHANNELS; i++)
     9c8:	c0 17       	cp	r28, r16
     9ca:	d1 07       	cpc	r29, r17
     9cc:	81 f7       	brne	.-32     	; 0x9ae <_Z11process_adcv+0x10>
			{
				fnqueue_add (adc_channel_cfg[i].callback);
			}
		}
	}
}
     9ce:	df 91       	pop	r29
     9d0:	cf 91       	pop	r28
     9d2:	1f 91       	pop	r17
     9d4:	0f 91       	pop	r16
     9d6:	08 95       	ret

000009d8 <_Z8adc_initP7adc_cfg>:
struct adc_cfg adc_channel_cfg[MAX_CHANNELS];

int adc_init(struct adc_cfg *cfg)
{
	//Configuro todo para el canal inicial
	int ADC_channel = cfg->channel;
     9d8:	fc 01       	movw	r30, r24
     9da:	20 81       	ld	r18, Z
     9dc:	31 81       	ldd	r19, Z+1	; 0x01
	if(ADC_channel>-1 && ADC_channel<6)
     9de:	26 30       	cpi	r18, 0x06	; 6
     9e0:	31 05       	cpc	r19, r1
     9e2:	08 f0       	brcs	.+2      	; 0x9e6 <_Z8adc_initP7adc_cfg+0xe>
     9e4:	59 c0       	rjmp	.+178    	; 0xa98 <_Z8adc_initP7adc_cfg+0xc0>
	{
		adc_channel_cfg[cfg->channel] = *cfg;
     9e6:	a9 01       	movw	r20, r18
     9e8:	44 0f       	add	r20, r20
     9ea:	55 1f       	adc	r21, r21
     9ec:	44 0f       	add	r20, r20
     9ee:	55 1f       	adc	r21, r21
     9f0:	44 0f       	add	r20, r20
     9f2:	55 1f       	adc	r21, r21
     9f4:	d9 01       	movw	r26, r18
     9f6:	aa 0f       	add	r26, r26
     9f8:	bb 1f       	adc	r27, r27
     9fa:	a4 0f       	add	r26, r20
     9fc:	b5 1f       	adc	r27, r21
     9fe:	a4 5c       	subi	r26, 0xC4	; 196
     a00:	bd 4f       	sbci	r27, 0xFD	; 253
     a02:	4a e0       	ldi	r20, 0x0A	; 10
     a04:	01 90       	ld	r0, Z+
     a06:	0d 92       	st	X+, r0
     a08:	4a 95       	dec	r20
     a0a:	e1 f7       	brne	.-8      	; 0xa04 <_Z8adc_initP7adc_cfg+0x2c>
		adc_channel_cfg[cfg->channel].active = 1;
     a0c:	fc 01       	movw	r30, r24
     a0e:	80 81       	ld	r24, Z
     a10:	91 81       	ldd	r25, Z+1	; 0x01
     a12:	fc 01       	movw	r30, r24
     a14:	ee 0f       	add	r30, r30
     a16:	ff 1f       	adc	r31, r31
     a18:	88 0f       	add	r24, r24
     a1a:	99 1f       	adc	r25, r25
     a1c:	88 0f       	add	r24, r24
     a1e:	99 1f       	adc	r25, r25
     a20:	88 0f       	add	r24, r24
     a22:	99 1f       	adc	r25, r25
     a24:	e8 0f       	add	r30, r24
     a26:	f9 1f       	adc	r31, r25
     a28:	e4 5c       	subi	r30, 0xC4	; 196
     a2a:	fd 4f       	sbci	r31, 0xFD	; 253
     a2c:	81 e0       	ldi	r24, 0x01	; 1
     a2e:	90 e0       	ldi	r25, 0x00	; 0
     a30:	97 83       	std	Z+7, r25	; 0x07
     a32:	86 83       	std	Z+6, r24	; 0x06

		actual_channel= ADC_channel;
     a34:	30 93 7d 02 	sts	0x027D, r19	; 0x80027d <_ZL14actual_channel+0x1>
     a38:	20 93 7c 02 	sts	0x027C, r18	; 0x80027c <_ZL14actual_channel>

		// si no estoy convirtiendo
		if(!converting)
     a3c:	80 91 7a 02 	lds	r24, 0x027A	; 0x80027a <_ZL10converting>
     a40:	90 91 7b 02 	lds	r25, 0x027B	; 0x80027b <_ZL10converting+0x1>
     a44:	89 2b       	or	r24, r25
     a46:	e1 f4       	brne	.+56     	; 0xa80 <_Z8adc_initP7adc_cfg+0xa8>
		{
			ADMUX |= (ADC_channel);								//inicializar MUX0..2 segun el canal ingresado
     a48:	ec e7       	ldi	r30, 0x7C	; 124
     a4a:	f0 e0       	ldi	r31, 0x00	; 0
     a4c:	80 81       	ld	r24, Z
     a4e:	28 2b       	or	r18, r24
     a50:	20 83       	st	Z, r18
			if(cant_channels==0)
     a52:	80 91 78 02 	lds	r24, 0x0278	; 0x800278 <_ZL13cant_channels>
     a56:	90 91 79 02 	lds	r25, 0x0279	; 0x800279 <_ZL13cant_channels+0x1>
     a5a:	89 2b       	or	r24, r25
     a5c:	89 f4       	brne	.+34     	; 0xa80 <_Z8adc_initP7adc_cfg+0xa8>
			{
				ADMUX |= (1<<REFS0);								//Avcc (+5V) como voltaje de referencia
     a5e:	80 81       	ld	r24, Z
     a60:	80 64       	ori	r24, 0x40	; 64
     a62:	80 83       	st	Z, r24
				ADCSRA |= (1<<ADPS1) | (1<<ADPS2) | (1<<ADPS0);
     a64:	ea e7       	ldi	r30, 0x7A	; 122
     a66:	f0 e0       	ldi	r31, 0x00	; 0
     a68:	80 81       	ld	r24, Z
     a6a:	87 60       	ori	r24, 0x07	; 7
     a6c:	80 83       	st	Z, r24
				ADCSRA |= (1<<ADEN) | ~(1<<ADATE) | (1<<ADSC) | (1<< ADIE);
     a6e:	80 81       	ld	r24, Z
     a70:	8f 6d       	ori	r24, 0xDF	; 223
     a72:	80 83       	st	Z, r24
				converting = 1;
     a74:	81 e0       	ldi	r24, 0x01	; 1
     a76:	90 e0       	ldi	r25, 0x00	; 0
     a78:	90 93 7b 02 	sts	0x027B, r25	; 0x80027b <_ZL10converting+0x1>
     a7c:	80 93 7a 02 	sts	0x027A, r24	; 0x80027a <_ZL10converting>
			}
		}
		cant_channels++;
     a80:	80 91 78 02 	lds	r24, 0x0278	; 0x800278 <_ZL13cant_channels>
     a84:	90 91 79 02 	lds	r25, 0x0279	; 0x800279 <_ZL13cant_channels+0x1>
     a88:	01 96       	adiw	r24, 0x01	; 1
     a8a:	90 93 79 02 	sts	0x0279, r25	; 0x800279 <_ZL13cant_channels+0x1>
     a8e:	80 93 78 02 	sts	0x0278, r24	; 0x800278 <_ZL13cant_channels>
		return 1;
     a92:	81 e0       	ldi	r24, 0x01	; 1
     a94:	90 e0       	ldi	r25, 0x00	; 0
     a96:	08 95       	ret
	}
	else
		return 0;
     a98:	80 e0       	ldi	r24, 0x00	; 0
     a9a:	90 e0       	ldi	r25, 0x00	; 0
}
     a9c:	08 95       	ret

00000a9e <__vector_21>:
		}
	}
}

ISR(ADC_vect)
{
     a9e:	1f 92       	push	r1
     aa0:	0f 92       	push	r0
     aa2:	0f b6       	in	r0, 0x3f	; 63
     aa4:	0f 92       	push	r0
     aa6:	11 24       	eor	r1, r1
     aa8:	2f 93       	push	r18
     aaa:	3f 93       	push	r19
     aac:	4f 93       	push	r20
     aae:	5f 93       	push	r21
     ab0:	6f 93       	push	r22
     ab2:	7f 93       	push	r23
     ab4:	8f 93       	push	r24
     ab6:	9f 93       	push	r25
     ab8:	af 93       	push	r26
     aba:	bf 93       	push	r27
     abc:	ef 93       	push	r30
     abe:	ff 93       	push	r31
	adc_channel_cfg[actual_channel].value = ADC;
     ac0:	80 91 7c 02 	lds	r24, 0x027C	; 0x80027c <_ZL14actual_channel>
     ac4:	90 91 7d 02 	lds	r25, 0x027D	; 0x80027d <_ZL14actual_channel+0x1>
     ac8:	20 91 78 00 	lds	r18, 0x0078	; 0x800078 <__TEXT_REGION_LENGTH__+0x7e0078>
     acc:	30 91 79 00 	lds	r19, 0x0079	; 0x800079 <__TEXT_REGION_LENGTH__+0x7e0079>
     ad0:	fc 01       	movw	r30, r24
     ad2:	ee 0f       	add	r30, r30
     ad4:	ff 1f       	adc	r31, r31
     ad6:	88 0f       	add	r24, r24
     ad8:	99 1f       	adc	r25, r25
     ada:	88 0f       	add	r24, r24
     adc:	99 1f       	adc	r25, r25
     ade:	88 0f       	add	r24, r24
     ae0:	99 1f       	adc	r25, r25
     ae2:	e8 0f       	add	r30, r24
     ae4:	f9 1f       	adc	r31, r25
     ae6:	e4 5c       	subi	r30, 0xC4	; 196
     ae8:	fd 4f       	sbci	r31, 0xFD	; 253
     aea:	35 83       	std	Z+5, r19	; 0x05
     aec:	24 83       	std	Z+4, r18	; 0x04
	adc_channel_cfg[actual_channel].finish_convertion = 1;
     aee:	80 91 7c 02 	lds	r24, 0x027C	; 0x80027c <_ZL14actual_channel>
     af2:	90 91 7d 02 	lds	r25, 0x027D	; 0x80027d <_ZL14actual_channel+0x1>
     af6:	fc 01       	movw	r30, r24
     af8:	ee 0f       	add	r30, r30
     afa:	ff 1f       	adc	r31, r31
     afc:	88 0f       	add	r24, r24
     afe:	99 1f       	adc	r25, r25
     b00:	88 0f       	add	r24, r24
     b02:	99 1f       	adc	r25, r25
     b04:	88 0f       	add	r24, r24
     b06:	99 1f       	adc	r25, r25
     b08:	e8 0f       	add	r30, r24
     b0a:	f9 1f       	adc	r31, r25
     b0c:	e4 5c       	subi	r30, 0xC4	; 196
     b0e:	fd 4f       	sbci	r31, 0xFD	; 253
     b10:	81 e0       	ldi	r24, 0x01	; 1
     b12:	90 e0       	ldi	r25, 0x00	; 0
     b14:	91 87       	std	Z+9, r25	; 0x09
     b16:	80 87       	std	Z+8, r24	; 0x08

	fnqueue_add (process_adc);
     b18:	8f ec       	ldi	r24, 0xCF	; 207
     b1a:	94 e0       	ldi	r25, 0x04	; 4
     b1c:	0e 94 36 06 	call	0xc6c	; 0xc6c <_Z11fnqueue_addPFvvE>

	// buscar el proximo canal
	if(actual_channel == 0)
     b20:	80 91 7c 02 	lds	r24, 0x027C	; 0x80027c <_ZL14actual_channel>
     b24:	90 91 7d 02 	lds	r25, 0x027D	; 0x80027d <_ZL14actual_channel+0x1>
     b28:	89 2b       	or	r24, r25
     b2a:	39 f4       	brne	.+14     	; 0xb3a <__vector_21+0x9c>
		actual_channel = 1;
     b2c:	81 e0       	ldi	r24, 0x01	; 1
     b2e:	90 e0       	ldi	r25, 0x00	; 0
     b30:	90 93 7d 02 	sts	0x027D, r25	; 0x80027d <_ZL14actual_channel+0x1>
     b34:	80 93 7c 02 	sts	0x027C, r24	; 0x80027c <_ZL14actual_channel>
     b38:	04 c0       	rjmp	.+8      	; 0xb42 <__vector_21+0xa4>
	else
		actual_channel = 0;
     b3a:	10 92 7d 02 	sts	0x027D, r1	; 0x80027d <_ZL14actual_channel+0x1>
     b3e:	10 92 7c 02 	sts	0x027C, r1	; 0x80027c <_ZL14actual_channel>

	ADMUX |= (actual_channel); // seteo el proximo canal a convertir
     b42:	80 91 7c 02 	lds	r24, 0x027C	; 0x80027c <_ZL14actual_channel>
     b46:	90 91 7d 02 	lds	r25, 0x027D	; 0x80027d <_ZL14actual_channel+0x1>
     b4a:	ec e7       	ldi	r30, 0x7C	; 124
     b4c:	f0 e0       	ldi	r31, 0x00	; 0
     b4e:	90 81       	ld	r25, Z
     b50:	89 2b       	or	r24, r25
     b52:	80 83       	st	Z, r24
	ADCSRA |= (1<<ADSC);//Poner el ADC a convertir
     b54:	ea e7       	ldi	r30, 0x7A	; 122
     b56:	f0 e0       	ldi	r31, 0x00	; 0
     b58:	80 81       	ld	r24, Z
     b5a:	80 64       	ori	r24, 0x40	; 64
     b5c:	80 83       	st	Z, r24
}
     b5e:	ff 91       	pop	r31
     b60:	ef 91       	pop	r30
     b62:	bf 91       	pop	r27
     b64:	af 91       	pop	r26
     b66:	9f 91       	pop	r25
     b68:	8f 91       	pop	r24
     b6a:	7f 91       	pop	r23
     b6c:	6f 91       	pop	r22
     b6e:	5f 91       	pop	r21
     b70:	4f 91       	pop	r20
     b72:	3f 91       	pop	r19
     b74:	2f 91       	pop	r18
     b76:	0f 90       	pop	r0
     b78:	0f be       	out	0x3f, r0	; 63
     b7a:	0f 90       	pop	r0
     b7c:	1f 90       	pop	r1
     b7e:	18 95       	reti

00000b80 <_Z14critical_beginv>:
    // mdulo de regin crtica. Esto puede suceder cuando se est ejecutando
    // una rutina de interrupcin. En este caso, no deshabilitar las
    // interrupciones

    // Lectura atmica del registro
    uint8_t status_register = SREG;
     b80:	2f b7       	in	r18, 0x3f	; 63
    cli();
     b82:	f8 94       	cli

    // Si las interrupciones estaban habilitadas, y an no fueron
    // deshabilitadas por el mdulo de regin crtica
    // o estn deshabilitadas pero por el mdulo de regin crtica
    //       incrementar el anidamiento.
    if (((anidamiento == 0) && ((status_register & (0x80)) != 0)) || ((anidamiento != 0) && ((status_register & (0x80)) == 0)))
     b84:	80 91 7e 02 	lds	r24, 0x027E	; 0x80027e <_ZL11anidamiento>
     b88:	90 91 7f 02 	lds	r25, 0x027F	; 0x80027f <_ZL11anidamiento+0x1>
     b8c:	89 2b       	or	r24, r25
     b8e:	19 f4       	brne	.+6      	; 0xb96 <_Z14critical_beginv+0x16>
     b90:	22 23       	and	r18, r18
     b92:	9c f4       	brge	.+38     	; 0xbba <_Z14critical_beginv+0x3a>
     b94:	08 c0       	rjmp	.+16     	; 0xba6 <_Z14critical_beginv+0x26>
     b96:	80 91 7e 02 	lds	r24, 0x027E	; 0x80027e <_ZL11anidamiento>
     b9a:	90 91 7f 02 	lds	r25, 0x027F	; 0x80027f <_ZL11anidamiento+0x1>
     b9e:	89 2b       	or	r24, r25
     ba0:	91 f0       	breq	.+36     	; 0xbc6 <_Z14critical_beginv+0x46>
     ba2:	22 23       	and	r18, r18
     ba4:	84 f0       	brlt	.+32     	; 0xbc6 <_Z14critical_beginv+0x46>
    {
        anidamiento++;
     ba6:	80 91 7e 02 	lds	r24, 0x027E	; 0x80027e <_ZL11anidamiento>
     baa:	90 91 7f 02 	lds	r25, 0x027F	; 0x80027f <_ZL11anidamiento+0x1>
     bae:	01 96       	adiw	r24, 0x01	; 1
     bb0:	90 93 7f 02 	sts	0x027F, r25	; 0x80027f <_ZL11anidamiento+0x1>
     bb4:	80 93 7e 02 	sts	0x027E, r24	; 0x80027e <_ZL11anidamiento>
     bb8:	08 95       	ret

    // Si las interrupciones estaban habilitadas, y an no fueron
    // deshabilitadas por el mdulo de regin crtica
    // o estn deshabilitadas pero por el mdulo de regin crtica
    //       incrementar el anidamiento.
    if (((anidamiento == 0) && ((status_register & (0x80)) != 0)) || ((anidamiento != 0) && ((status_register & (0x80)) == 0)))
     bba:	80 91 7e 02 	lds	r24, 0x027E	; 0x80027e <_ZL11anidamiento>
     bbe:	90 91 7f 02 	lds	r25, 0x027F	; 0x80027f <_ZL11anidamiento+0x1>
     bc2:	89 2b       	or	r24, r25
     bc4:	81 f7       	brne	.-32     	; 0xba6 <_Z14critical_beginv+0x26>
     bc6:	08 95       	ret

00000bc8 <_Z12critical_endv>:
    // crtica, no hacer nada.
}

void critical_end(void)
{
    uint8_t status_register = SREG;
     bc8:	2f b7       	in	r18, 0x3f	; 63
    cli();
     bca:	f8 94       	cli

    if (anidamiento > 0) {
     bcc:	80 91 7e 02 	lds	r24, 0x027E	; 0x80027e <_ZL11anidamiento>
     bd0:	90 91 7f 02 	lds	r25, 0x027F	; 0x80027f <_ZL11anidamiento+0x1>
     bd4:	18 16       	cp	r1, r24
     bd6:	19 06       	cpc	r1, r25
     bd8:	8c f4       	brge	.+34     	; 0xbfc <_Z12critical_endv+0x34>
        anidamiento--;
     bda:	80 91 7e 02 	lds	r24, 0x027E	; 0x80027e <_ZL11anidamiento>
     bde:	90 91 7f 02 	lds	r25, 0x027F	; 0x80027f <_ZL11anidamiento+0x1>
     be2:	01 97       	sbiw	r24, 0x01	; 1
     be4:	90 93 7f 02 	sts	0x027F, r25	; 0x80027f <_ZL11anidamiento+0x1>
     be8:	80 93 7e 02 	sts	0x027E, r24	; 0x80027e <_ZL11anidamiento>
        if (anidamiento == 0)
     bec:	80 91 7e 02 	lds	r24, 0x027E	; 0x80027e <_ZL11anidamiento>
     bf0:	90 91 7f 02 	lds	r25, 0x027F	; 0x80027f <_ZL11anidamiento+0x1>
     bf4:	89 2b       	or	r24, r25
     bf6:	29 f4       	brne	.+10     	; 0xc02 <_Z12critical_endv+0x3a>
            sei();
     bf8:	78 94       	sei
     bfa:	08 95       	ret
    }
    else if ((status_register & 0x80) != 0)
     bfc:	22 23       	and	r18, r18
     bfe:	0c f4       	brge	.+2      	; 0xc02 <_Z12critical_endv+0x3a>
        sei();
     c00:	78 94       	sei
     c02:	08 95       	ret

00000c04 <_Z12fnqueue_initv>:
	fnqueue_tail,
	fnqueue_count;

bool fnqueue_init(void)
{
	fnqueue_head = 0;
     c04:	10 92 82 02 	sts	0x0282, r1	; 0x800282 <_ZL12fnqueue_head>
	fnqueue_tail = 0;
     c08:	10 92 81 02 	sts	0x0281, r1	; 0x800281 <_ZL12fnqueue_tail>
	fnqueue_count = 0;
     c0c:	10 92 80 02 	sts	0x0280, r1	; 0x800280 <_ZL13fnqueue_count>
    
    return true;
}
     c10:	81 e0       	ldi	r24, 0x01	; 1
     c12:	08 95       	ret

00000c14 <_Z11fnqueue_runv>:

bool fnqueue_run(void)
{
    critical_begin();
     c14:	0e 94 c0 05 	call	0xb80	; 0xb80 <_Z14critical_beginv>
    if (fnqueue_count > 0)
     c18:	80 91 80 02 	lds	r24, 0x0280	; 0x800280 <_ZL13fnqueue_count>
     c1c:	88 23       	and	r24, r24
     c1e:	11 f1       	breq	.+68     	; 0xc64 <_Z11fnqueue_runv+0x50>
    {
        critical_end();
     c20:	0e 94 e4 05 	call	0xbc8	; 0xbc8 <_Z12critical_endv>

        fnqueue_functions[fnqueue_head]();
     c24:	e0 91 82 02 	lds	r30, 0x0282	; 0x800282 <_ZL12fnqueue_head>
     c28:	f0 e0       	ldi	r31, 0x00	; 0
     c2a:	ee 0f       	add	r30, r30
     c2c:	ff 1f       	adc	r31, r31
     c2e:	ed 57       	subi	r30, 0x7D	; 125
     c30:	fd 4f       	sbci	r31, 0xFD	; 253
     c32:	01 90       	ld	r0, Z+
     c34:	f0 81       	ld	r31, Z
     c36:	e0 2d       	mov	r30, r0
     c38:	09 95       	icall
        critical_begin();
     c3a:	0e 94 c0 05 	call	0xb80	; 0xb80 <_Z14critical_beginv>
        fnqueue_head = (fnqueue_head + 1) % FNQUEUE_LENGTH;
     c3e:	80 91 82 02 	lds	r24, 0x0282	; 0x800282 <_ZL12fnqueue_head>
     c42:	90 e0       	ldi	r25, 0x00	; 0
     c44:	01 96       	adiw	r24, 0x01	; 1
     c46:	8f 70       	andi	r24, 0x0F	; 15
     c48:	90 78       	andi	r25, 0x80	; 128
     c4a:	99 23       	and	r25, r25
     c4c:	24 f4       	brge	.+8      	; 0xc56 <_Z11fnqueue_runv+0x42>
     c4e:	01 97       	sbiw	r24, 0x01	; 1
     c50:	80 6f       	ori	r24, 0xF0	; 240
     c52:	9f 6f       	ori	r25, 0xFF	; 255
     c54:	01 96       	adiw	r24, 0x01	; 1
     c56:	80 93 82 02 	sts	0x0282, r24	; 0x800282 <_ZL12fnqueue_head>
        fnqueue_count--;
     c5a:	80 91 80 02 	lds	r24, 0x0280	; 0x800280 <_ZL13fnqueue_count>
     c5e:	81 50       	subi	r24, 0x01	; 1
     c60:	80 93 80 02 	sts	0x0280, r24	; 0x800280 <_ZL13fnqueue_count>
    }
    critical_end();
     c64:	0e 94 e4 05 	call	0xbc8	; 0xbc8 <_Z12critical_endv>

	return 1;
}
     c68:	81 e0       	ldi	r24, 0x01	; 1
     c6a:	08 95       	ret

00000c6c <_Z11fnqueue_addPFvvE>:

bool fnqueue_add(void (*function)(void))
{
     c6c:	cf 93       	push	r28
     c6e:	df 93       	push	r29
     c70:	ec 01       	movw	r28, r24
	bool result = false;
	
    critical_begin();
     c72:	0e 94 c0 05 	call	0xb80	; 0xb80 <_Z14critical_beginv>
    if (fnqueue_count < FNQUEUE_LENGTH)
     c76:	20 91 80 02 	lds	r18, 0x0280	; 0x800280 <_ZL13fnqueue_count>
     c7a:	20 31       	cpi	r18, 0x10	; 16
     c7c:	d0 f4       	brcc	.+52     	; 0xcb2 <_Z11fnqueue_addPFvvE+0x46>
    {
        fnqueue_functions[fnqueue_tail] = function;
     c7e:	80 91 81 02 	lds	r24, 0x0281	; 0x800281 <_ZL12fnqueue_tail>
     c82:	90 e0       	ldi	r25, 0x00	; 0
     c84:	fc 01       	movw	r30, r24
     c86:	ee 0f       	add	r30, r30
     c88:	ff 1f       	adc	r31, r31
     c8a:	ed 57       	subi	r30, 0x7D	; 125
     c8c:	fd 4f       	sbci	r31, 0xFD	; 253
     c8e:	d1 83       	std	Z+1, r29	; 0x01
     c90:	c0 83       	st	Z, r28
        fnqueue_tail = (fnqueue_tail + 1) % FNQUEUE_LENGTH;
     c92:	01 96       	adiw	r24, 0x01	; 1
     c94:	8f 70       	andi	r24, 0x0F	; 15
     c96:	90 78       	andi	r25, 0x80	; 128
     c98:	99 23       	and	r25, r25
     c9a:	24 f4       	brge	.+8      	; 0xca4 <_Z11fnqueue_addPFvvE+0x38>
     c9c:	01 97       	sbiw	r24, 0x01	; 1
     c9e:	80 6f       	ori	r24, 0xF0	; 240
     ca0:	9f 6f       	ori	r25, 0xFF	; 255
     ca2:	01 96       	adiw	r24, 0x01	; 1
     ca4:	80 93 81 02 	sts	0x0281, r24	; 0x800281 <_ZL12fnqueue_tail>
        fnqueue_count++;
     ca8:	2f 5f       	subi	r18, 0xFF	; 255
     caa:	20 93 80 02 	sts	0x0280, r18	; 0x800280 <_ZL13fnqueue_count>
        result = true;
     cae:	c1 e0       	ldi	r28, 0x01	; 1
     cb0:	01 c0       	rjmp	.+2      	; 0xcb4 <_Z11fnqueue_addPFvvE+0x48>
	return 1;
}

bool fnqueue_add(void (*function)(void))
{
	bool result = false;
     cb2:	c0 e0       	ldi	r28, 0x00	; 0
        fnqueue_functions[fnqueue_tail] = function;
        fnqueue_tail = (fnqueue_tail + 1) % FNQUEUE_LENGTH;
        fnqueue_count++;
        result = true;
    }
    critical_end();
     cb4:	0e 94 e4 05 	call	0xbc8	; 0xbc8 <_Z12critical_endv>
    return result;
}
     cb8:	8c 2f       	mov	r24, r28
     cba:	df 91       	pop	r29
     cbc:	cf 91       	pop	r28
     cbe:	08 95       	ret

00000cc0 <_Z11adc_processv>:
	if(tecla>=0 && tecla < NRO_TECLAS)
		teclas_callback[tecla].callback_Down = handler;
}

void adc_process()
{
     cc0:	cf 93       	push	r28
     cc2:	df 93       	push	r29
	int16_t k;
	int8_t analogVal = cfg_keyboard.value;
	for (k = 0; k < NRO_TECLAS; k++)
	{
		if (analogVal < adc_key_val[k])
     cc4:	60 91 a7 02 	lds	r22, 0x02A7	; 0x8002a7 <cfg_keyboard+0x4>
     cc8:	06 2e       	mov	r0, r22
     cca:	00 0c       	add	r0, r0
     ccc:	77 0b       	sbc	r23, r23
     cce:	80 91 00 01 	lds	r24, 0x0100	; 0x800100 <__data_start>
     cd2:	90 91 01 01 	lds	r25, 0x0101	; 0x800101 <__data_start+0x1>
     cd6:	68 17       	cp	r22, r24
     cd8:	79 07       	cpc	r23, r25
     cda:	54 f0       	brlt	.+20     	; 0xcf0 <_Z11adc_processv+0x30>
     cdc:	e2 e0       	ldi	r30, 0x02	; 2
     cde:	f1 e0       	ldi	r31, 0x01	; 1

void adc_process()
{
	int16_t k;
	int8_t analogVal = cfg_keyboard.value;
	for (k = 0; k < NRO_TECLAS; k++)
     ce0:	c1 e0       	ldi	r28, 0x01	; 1
     ce2:	d0 e0       	ldi	r29, 0x00	; 0
	{
		if (analogVal < adc_key_val[k])
     ce4:	81 91       	ld	r24, Z+
     ce6:	91 91       	ld	r25, Z+
     ce8:	68 17       	cp	r22, r24
     cea:	79 07       	cpc	r23, r25
     cec:	4c f5       	brge	.+82     	; 0xd40 <_Z11adc_processv+0x80>
     cee:	46 c0       	rjmp	.+140    	; 0xd7c <_Z11adc_processv+0xbc>
		{
			if(oldkey!=k)
     cf0:	80 91 0a 01 	lds	r24, 0x010A	; 0x80010a <_ZL6oldkey>
     cf4:	90 91 0b 01 	lds	r25, 0x010B	; 0x80010b <_ZL6oldkey+0x1>
     cf8:	89 2b       	or	r24, r25
     cfa:	09 f4       	brne	.+2      	; 0xcfe <_Z11adc_processv+0x3e>
     cfc:	47 c0       	rjmp	.+142    	; 0xd8c <_Z11adc_processv+0xcc>

void adc_process()
{
	int16_t k;
	int8_t analogVal = cfg_keyboard.value;
	for (k = 0; k < NRO_TECLAS; k++)
     cfe:	c0 e0       	ldi	r28, 0x00	; 0
     d00:	d0 e0       	ldi	r29, 0x00	; 0
	{
		if (analogVal < adc_key_val[k])
		{
			if(oldkey!=k)
			{
				oldkey=k;
     d02:	d0 93 0b 01 	sts	0x010B, r29	; 0x80010b <_ZL6oldkey+0x1>
     d06:	c0 93 0a 01 	sts	0x010A, r28	; 0x80010a <_ZL6oldkey>
				Serial.println(analogVal);
     d0a:	4a e0       	ldi	r20, 0x0A	; 10
     d0c:	50 e0       	ldi	r21, 0x00	; 0
     d0e:	86 e9       	ldi	r24, 0x96	; 150
     d10:	91 e0       	ldi	r25, 0x01	; 1
     d12:	0e 94 d9 02 	call	0x5b2	; 0x5b2 <_ZN5Print7printlnEii>
				Serial.println(k);
     d16:	4a e0       	ldi	r20, 0x0A	; 10
     d18:	50 e0       	ldi	r21, 0x00	; 0
     d1a:	be 01       	movw	r22, r28
     d1c:	86 e9       	ldi	r24, 0x96	; 150
     d1e:	91 e0       	ldi	r25, 0x01	; 1
     d20:	0e 94 d9 02 	call	0x5b2	; 0x5b2 <_ZN5Print7printlnEii>
				teclas_callback[k].callback_Down();
     d24:	fe 01       	movw	r30, r28
     d26:	ee 0f       	add	r30, r30
     d28:	ff 1f       	adc	r31, r31
     d2a:	ee 0f       	add	r30, r30
     d2c:	ff 1f       	adc	r31, r31
     d2e:	e3 55       	subi	r30, 0x53	; 83
     d30:	fd 4f       	sbci	r31, 0xFD	; 253
     d32:	02 80       	ldd	r0, Z+2	; 0x02
     d34:	f3 81       	ldd	r31, Z+3	; 0x03
     d36:	e0 2d       	mov	r30, r0
     d38:	09 95       	icall
			}
			break;
		}
	}
	if (k >= NRO_TECLAS)		//solto el boton
     d3a:	25 97       	sbiw	r28, 0x05	; 5
     d3c:	3c f1       	brlt	.+78     	; 0xd8c <_Z11adc_processv+0xcc>
     d3e:	04 c0       	rjmp	.+8      	; 0xd48 <_Z11adc_processv+0x88>

void adc_process()
{
	int16_t k;
	int8_t analogVal = cfg_keyboard.value;
	for (k = 0; k < NRO_TECLAS; k++)
     d40:	21 96       	adiw	r28, 0x01	; 1
     d42:	c5 30       	cpi	r28, 0x05	; 5
     d44:	d1 05       	cpc	r29, r1
     d46:	71 f6       	brne	.-100    	; 0xce4 <_Z11adc_processv+0x24>
			}
			break;
		}
	}
	if (k >= NRO_TECLAS)		//solto el boton
	if(oldkey!= -1)
     d48:	80 91 0a 01 	lds	r24, 0x010A	; 0x80010a <_ZL6oldkey>
     d4c:	90 91 0b 01 	lds	r25, 0x010B	; 0x80010b <_ZL6oldkey+0x1>
     d50:	8f 3f       	cpi	r24, 0xFF	; 255
     d52:	2f ef       	ldi	r18, 0xFF	; 255
     d54:	92 07       	cpc	r25, r18
     d56:	d1 f0       	breq	.+52     	; 0xd8c <_Z11adc_processv+0xcc>
	{
		teclas_callback[oldkey].callback_Up();
     d58:	88 0f       	add	r24, r24
     d5a:	99 1f       	adc	r25, r25
     d5c:	88 0f       	add	r24, r24
     d5e:	99 1f       	adc	r25, r25
     d60:	fc 01       	movw	r30, r24
     d62:	e3 55       	subi	r30, 0x53	; 83
     d64:	fd 4f       	sbci	r31, 0xFD	; 253
     d66:	01 90       	ld	r0, Z+
     d68:	f0 81       	ld	r31, Z
     d6a:	e0 2d       	mov	r30, r0
     d6c:	09 95       	icall
		oldkey = -1;     // Solto el boton y cambio el valor de oldkey
     d6e:	8f ef       	ldi	r24, 0xFF	; 255
     d70:	9f ef       	ldi	r25, 0xFF	; 255
     d72:	90 93 0b 01 	sts	0x010B, r25	; 0x80010b <_ZL6oldkey+0x1>
     d76:	80 93 0a 01 	sts	0x010A, r24	; 0x80010a <_ZL6oldkey>
	}
	;
}
     d7a:	08 c0       	rjmp	.+16     	; 0xd8c <_Z11adc_processv+0xcc>
	int8_t analogVal = cfg_keyboard.value;
	for (k = 0; k < NRO_TECLAS; k++)
	{
		if (analogVal < adc_key_val[k])
		{
			if(oldkey!=k)
     d7c:	80 91 0a 01 	lds	r24, 0x010A	; 0x80010a <_ZL6oldkey>
     d80:	90 91 0b 01 	lds	r25, 0x010B	; 0x80010b <_ZL6oldkey+0x1>
     d84:	8c 17       	cp	r24, r28
     d86:	9d 07       	cpc	r25, r29
     d88:	09 f0       	breq	.+2      	; 0xd8c <_Z11adc_processv+0xcc>
     d8a:	bb cf       	rjmp	.-138    	; 0xd02 <_Z11adc_processv+0x42>
	{
		teclas_callback[oldkey].callback_Up();
		oldkey = -1;     // Solto el boton y cambio el valor de oldkey
	}
	;
}
     d8c:	df 91       	pop	r29
     d8e:	cf 91       	pop	r28
     d90:	08 95       	ret

00000d92 <_Z15key_up_callbackPFvvEi>:
struct callback_str teclas_callback[ NRO_TECLAS ];
adc_cfg cfg_keyboard;

void key_up_callback(void (* handler)(), int tecla)
{
	if(tecla>=0 && tecla < NRO_TECLAS)
     d92:	65 30       	cpi	r22, 0x05	; 5
     d94:	71 05       	cpc	r23, r1
     d96:	48 f4       	brcc	.+18     	; 0xdaa <_Z15key_up_callbackPFvvEi+0x18>
		teclas_callback[tecla].callback_Up = handler;
     d98:	66 0f       	add	r22, r22
     d9a:	77 1f       	adc	r23, r23
     d9c:	66 0f       	add	r22, r22
     d9e:	77 1f       	adc	r23, r23
     da0:	fb 01       	movw	r30, r22
     da2:	e3 55       	subi	r30, 0x53	; 83
     da4:	fd 4f       	sbci	r31, 0xFD	; 253
     da6:	91 83       	std	Z+1, r25	; 0x01
     da8:	80 83       	st	Z, r24
     daa:	08 95       	ret

00000dac <_Z17key_down_callbackPFvvEi>:
}

void key_down_callback(void (* handler)(), int tecla)
{
	if(tecla>=0 && tecla < NRO_TECLAS)
     dac:	65 30       	cpi	r22, 0x05	; 5
     dae:	71 05       	cpc	r23, r1
     db0:	48 f4       	brcc	.+18     	; 0xdc4 <_Z17key_down_callbackPFvvEi+0x18>
		teclas_callback[tecla].callback_Down = handler;
     db2:	66 0f       	add	r22, r22
     db4:	77 1f       	adc	r23, r23
     db6:	66 0f       	add	r22, r22
     db8:	77 1f       	adc	r23, r23
     dba:	fb 01       	movw	r30, r22
     dbc:	e3 55       	subi	r30, 0x53	; 83
     dbe:	fd 4f       	sbci	r31, 0xFD	; 253
     dc0:	93 83       	std	Z+3, r25	; 0x03
     dc2:	82 83       	std	Z+2, r24	; 0x02
     dc4:	08 95       	ret

00000dc6 <_Z13keyboard_initv>:
	;
}

void keyboard_init(void)
{
	cfg_keyboard.channel = 0;
     dc6:	e3 ea       	ldi	r30, 0xA3	; 163
     dc8:	f2 e0       	ldi	r31, 0x02	; 2
     dca:	11 82       	std	Z+1, r1	; 0x01
     dcc:	10 82       	st	Z, r1
	cfg_keyboard.callback = adc_process;
     dce:	80 e6       	ldi	r24, 0x60	; 96
     dd0:	96 e0       	ldi	r25, 0x06	; 6
     dd2:	93 83       	std	Z+3, r25	; 0x03
     dd4:	82 83       	std	Z+2, r24	; 0x02
	cfg_keyboard.value = 0;
     dd6:	15 82       	std	Z+5, r1	; 0x05
     dd8:	14 82       	std	Z+4, r1	; 0x04
	cfg_keyboard.active = 0;
     dda:	17 82       	std	Z+7, r1	; 0x07
     ddc:	16 82       	std	Z+6, r1	; 0x06
	cfg_keyboard.finish_convertion = 0;
     dde:	11 86       	std	Z+9, r1	; 0x09
     de0:	10 86       	std	Z+8, r1	; 0x08
	adc_init(&cfg_keyboard);
     de2:	cf 01       	movw	r24, r30
     de4:	0e 94 ec 04 	call	0x9d8	; 0x9d8 <_Z8adc_initP7adc_cfg>
     de8:	08 95       	ret

00000dea <_ZN5Print17availableForWriteEv>:
  location &= 0x7; // we only have 8 locations 0-7
  command(LCD_SETCGRAMADDR | (location << 3));
  for (int i=0; i<8; i++) {
    write(charmap[i]);
  }
}
     dea:	80 e0       	ldi	r24, 0x00	; 0
     dec:	90 e0       	ldi	r25, 0x00	; 0
     dee:	08 95       	ret

00000df0 <_ZN5Print5flushEv>:
     df0:	08 95       	ret

00000df2 <_ZN13LiquidCrystal11pulseEnableEv>:
     df2:	cf 93       	push	r28
     df4:	df 93       	push	r29
     df6:	ec 01       	movw	r28, r24
     df8:	60 e0       	ldi	r22, 0x00	; 0
     dfa:	8e 81       	ldd	r24, Y+6	; 0x06
     dfc:	0e 94 fb 01 	call	0x3f6	; 0x3f6 <digitalWrite>
     e00:	81 e0       	ldi	r24, 0x01	; 1
     e02:	90 e0       	ldi	r25, 0x00	; 0
     e04:	0e 94 84 02 	call	0x508	; 0x508 <delayMicroseconds>
     e08:	61 e0       	ldi	r22, 0x01	; 1
     e0a:	8e 81       	ldd	r24, Y+6	; 0x06
     e0c:	0e 94 fb 01 	call	0x3f6	; 0x3f6 <digitalWrite>
     e10:	81 e0       	ldi	r24, 0x01	; 1
     e12:	90 e0       	ldi	r25, 0x00	; 0
     e14:	0e 94 84 02 	call	0x508	; 0x508 <delayMicroseconds>
     e18:	60 e0       	ldi	r22, 0x00	; 0
     e1a:	8e 81       	ldd	r24, Y+6	; 0x06
     e1c:	0e 94 fb 01 	call	0x3f6	; 0x3f6 <digitalWrite>
     e20:	84 e6       	ldi	r24, 0x64	; 100
     e22:	90 e0       	ldi	r25, 0x00	; 0
     e24:	0e 94 84 02 	call	0x508	; 0x508 <delayMicroseconds>
     e28:	df 91       	pop	r29
     e2a:	cf 91       	pop	r28
     e2c:	08 95       	ret

00000e2e <_ZN13LiquidCrystal10write4bitsEh>:
     e2e:	cf 92       	push	r12
     e30:	df 92       	push	r13
     e32:	ef 92       	push	r14
     e34:	ff 92       	push	r15
     e36:	0f 93       	push	r16
     e38:	1f 93       	push	r17
     e3a:	cf 93       	push	r28
     e3c:	df 93       	push	r29
     e3e:	6c 01       	movw	r12, r24
     e40:	8c 01       	movw	r16, r24
     e42:	09 5f       	subi	r16, 0xF9	; 249
     e44:	1f 4f       	sbci	r17, 0xFF	; 255
     e46:	c0 e0       	ldi	r28, 0x00	; 0
     e48:	d0 e0       	ldi	r29, 0x00	; 0
     e4a:	e6 2e       	mov	r14, r22
     e4c:	f1 2c       	mov	r15, r1
     e4e:	b7 01       	movw	r22, r14
     e50:	0c 2e       	mov	r0, r28
     e52:	02 c0       	rjmp	.+4      	; 0xe58 <_ZN13LiquidCrystal10write4bitsEh+0x2a>
     e54:	75 95       	asr	r23
     e56:	67 95       	ror	r22
     e58:	0a 94       	dec	r0
     e5a:	e2 f7       	brpl	.-8      	; 0xe54 <_ZN13LiquidCrystal10write4bitsEh+0x26>
     e5c:	61 70       	andi	r22, 0x01	; 1
     e5e:	f8 01       	movw	r30, r16
     e60:	81 91       	ld	r24, Z+
     e62:	8f 01       	movw	r16, r30
     e64:	0e 94 fb 01 	call	0x3f6	; 0x3f6 <digitalWrite>
     e68:	21 96       	adiw	r28, 0x01	; 1
     e6a:	c4 30       	cpi	r28, 0x04	; 4
     e6c:	d1 05       	cpc	r29, r1
     e6e:	79 f7       	brne	.-34     	; 0xe4e <_ZN13LiquidCrystal10write4bitsEh+0x20>
     e70:	c6 01       	movw	r24, r12
     e72:	0e 94 f9 06 	call	0xdf2	; 0xdf2 <_ZN13LiquidCrystal11pulseEnableEv>
     e76:	df 91       	pop	r29
     e78:	cf 91       	pop	r28
     e7a:	1f 91       	pop	r17
     e7c:	0f 91       	pop	r16
     e7e:	ff 90       	pop	r15
     e80:	ef 90       	pop	r14
     e82:	df 90       	pop	r13
     e84:	cf 90       	pop	r12
     e86:	08 95       	ret

00000e88 <_ZN13LiquidCrystal10write8bitsEh>:
     e88:	cf 92       	push	r12
     e8a:	df 92       	push	r13
     e8c:	ef 92       	push	r14
     e8e:	ff 92       	push	r15
     e90:	0f 93       	push	r16
     e92:	1f 93       	push	r17
     e94:	cf 93       	push	r28
     e96:	df 93       	push	r29
     e98:	6c 01       	movw	r12, r24
     e9a:	8c 01       	movw	r16, r24
     e9c:	09 5f       	subi	r16, 0xF9	; 249
     e9e:	1f 4f       	sbci	r17, 0xFF	; 255
     ea0:	c0 e0       	ldi	r28, 0x00	; 0
     ea2:	d0 e0       	ldi	r29, 0x00	; 0
     ea4:	e6 2e       	mov	r14, r22
     ea6:	f1 2c       	mov	r15, r1
     ea8:	b7 01       	movw	r22, r14
     eaa:	0c 2e       	mov	r0, r28
     eac:	02 c0       	rjmp	.+4      	; 0xeb2 <_ZN13LiquidCrystal10write8bitsEh+0x2a>
     eae:	75 95       	asr	r23
     eb0:	67 95       	ror	r22
     eb2:	0a 94       	dec	r0
     eb4:	e2 f7       	brpl	.-8      	; 0xeae <_ZN13LiquidCrystal10write8bitsEh+0x26>
     eb6:	61 70       	andi	r22, 0x01	; 1
     eb8:	f8 01       	movw	r30, r16
     eba:	81 91       	ld	r24, Z+
     ebc:	8f 01       	movw	r16, r30
     ebe:	0e 94 fb 01 	call	0x3f6	; 0x3f6 <digitalWrite>
     ec2:	21 96       	adiw	r28, 0x01	; 1
     ec4:	c8 30       	cpi	r28, 0x08	; 8
     ec6:	d1 05       	cpc	r29, r1
     ec8:	79 f7       	brne	.-34     	; 0xea8 <_ZN13LiquidCrystal10write8bitsEh+0x20>
     eca:	c6 01       	movw	r24, r12
     ecc:	0e 94 f9 06 	call	0xdf2	; 0xdf2 <_ZN13LiquidCrystal11pulseEnableEv>
     ed0:	df 91       	pop	r29
     ed2:	cf 91       	pop	r28
     ed4:	1f 91       	pop	r17
     ed6:	0f 91       	pop	r16
     ed8:	ff 90       	pop	r15
     eda:	ef 90       	pop	r14
     edc:	df 90       	pop	r13
     ede:	cf 90       	pop	r12
     ee0:	08 95       	ret

00000ee2 <_ZN13LiquidCrystal4sendEhh>:
     ee2:	1f 93       	push	r17
     ee4:	cf 93       	push	r28
     ee6:	df 93       	push	r29
     ee8:	ec 01       	movw	r28, r24
     eea:	16 2f       	mov	r17, r22
     eec:	64 2f       	mov	r22, r20
     eee:	8c 81       	ldd	r24, Y+4	; 0x04
     ef0:	0e 94 fb 01 	call	0x3f6	; 0x3f6 <digitalWrite>
     ef4:	8d 81       	ldd	r24, Y+5	; 0x05
     ef6:	8f 3f       	cpi	r24, 0xFF	; 255
     ef8:	19 f0       	breq	.+6      	; 0xf00 <_ZN13LiquidCrystal4sendEhh+0x1e>
     efa:	60 e0       	ldi	r22, 0x00	; 0
     efc:	0e 94 fb 01 	call	0x3f6	; 0x3f6 <digitalWrite>
     f00:	8f 85       	ldd	r24, Y+15	; 0x0f
     f02:	84 ff       	sbrs	r24, 4
     f04:	05 c0       	rjmp	.+10     	; 0xf10 <_ZN13LiquidCrystal4sendEhh+0x2e>
     f06:	61 2f       	mov	r22, r17
     f08:	ce 01       	movw	r24, r28
     f0a:	0e 94 44 07 	call	0xe88	; 0xe88 <_ZN13LiquidCrystal10write8bitsEh>
     f0e:	11 c0       	rjmp	.+34     	; 0xf32 <_ZN13LiquidCrystal4sendEhh+0x50>
     f10:	61 2f       	mov	r22, r17
     f12:	70 e0       	ldi	r23, 0x00	; 0
     f14:	75 95       	asr	r23
     f16:	67 95       	ror	r22
     f18:	75 95       	asr	r23
     f1a:	67 95       	ror	r22
     f1c:	75 95       	asr	r23
     f1e:	67 95       	ror	r22
     f20:	75 95       	asr	r23
     f22:	67 95       	ror	r22
     f24:	ce 01       	movw	r24, r28
     f26:	0e 94 17 07 	call	0xe2e	; 0xe2e <_ZN13LiquidCrystal10write4bitsEh>
     f2a:	61 2f       	mov	r22, r17
     f2c:	ce 01       	movw	r24, r28
     f2e:	0e 94 17 07 	call	0xe2e	; 0xe2e <_ZN13LiquidCrystal10write4bitsEh>
     f32:	df 91       	pop	r29
     f34:	cf 91       	pop	r28
     f36:	1f 91       	pop	r17
     f38:	08 95       	ret

00000f3a <_ZN13LiquidCrystal5clearEv>:
     f3a:	40 e0       	ldi	r20, 0x00	; 0
     f3c:	61 e0       	ldi	r22, 0x01	; 1
     f3e:	0e 94 71 07 	call	0xee2	; 0xee2 <_ZN13LiquidCrystal4sendEhh>
     f42:	80 ed       	ldi	r24, 0xD0	; 208
     f44:	97 e0       	ldi	r25, 0x07	; 7
     f46:	0e 94 84 02 	call	0x508	; 0x508 <delayMicroseconds>
     f4a:	08 95       	ret

00000f4c <_ZN13LiquidCrystal9setCursorEhh>:
     f4c:	fc 01       	movw	r30, r24
     f4e:	44 30       	cpi	r20, 0x04	; 4
     f50:	08 f0       	brcs	.+2      	; 0xf54 <_ZN13LiquidCrystal9setCursorEhh+0x8>
     f52:	43 e0       	ldi	r20, 0x03	; 3
     f54:	83 89       	ldd	r24, Z+19	; 0x13
     f56:	48 17       	cp	r20, r24
     f58:	10 f0       	brcs	.+4      	; 0xf5e <_ZN13LiquidCrystal9setCursorEhh+0x12>
     f5a:	4f ef       	ldi	r20, 0xFF	; 255
     f5c:	48 0f       	add	r20, r24
     f5e:	df 01       	movw	r26, r30
     f60:	a4 0f       	add	r26, r20
     f62:	b1 1d       	adc	r27, r1
     f64:	54 96       	adiw	r26, 0x14	; 20
     f66:	9c 91       	ld	r25, X
     f68:	69 0f       	add	r22, r25
     f6a:	60 68       	ori	r22, 0x80	; 128
     f6c:	40 e0       	ldi	r20, 0x00	; 0
     f6e:	cf 01       	movw	r24, r30
     f70:	0e 94 71 07 	call	0xee2	; 0xee2 <_ZN13LiquidCrystal4sendEhh>
     f74:	08 95       	ret

00000f76 <_ZN13LiquidCrystal7displayEv>:
     f76:	fc 01       	movw	r30, r24
     f78:	60 89       	ldd	r22, Z+16	; 0x10
     f7a:	26 2f       	mov	r18, r22
     f7c:	24 60       	ori	r18, 0x04	; 4
     f7e:	20 8b       	std	Z+16, r18	; 0x10
     f80:	6c 60       	ori	r22, 0x0C	; 12
     f82:	40 e0       	ldi	r20, 0x00	; 0
     f84:	0e 94 71 07 	call	0xee2	; 0xee2 <_ZN13LiquidCrystal4sendEhh>
     f88:	08 95       	ret

00000f8a <_ZN13LiquidCrystal5beginEhhh>:
     f8a:	af 92       	push	r10
     f8c:	bf 92       	push	r11
     f8e:	cf 92       	push	r12
     f90:	df 92       	push	r13
     f92:	ef 92       	push	r14
     f94:	ff 92       	push	r15
     f96:	0f 93       	push	r16
     f98:	1f 93       	push	r17
     f9a:	cf 93       	push	r28
     f9c:	df 93       	push	r29
     f9e:	ec 01       	movw	r28, r24
     fa0:	42 30       	cpi	r20, 0x02	; 2
     fa2:	18 f0       	brcs	.+6      	; 0xfaa <_ZN13LiquidCrystal5beginEhhh+0x20>
     fa4:	8f 85       	ldd	r24, Y+15	; 0x0f
     fa6:	88 60       	ori	r24, 0x08	; 8
     fa8:	8f 87       	std	Y+15, r24	; 0x0f
     faa:	4b 8b       	std	Y+19, r20	; 0x13
     fac:	1c 8a       	std	Y+20, r1	; 0x14
     fae:	80 e4       	ldi	r24, 0x40	; 64
     fb0:	8d 8b       	std	Y+21, r24	; 0x15
     fb2:	6e 8b       	std	Y+22, r22	; 0x16
     fb4:	70 e0       	ldi	r23, 0x00	; 0
     fb6:	60 5c       	subi	r22, 0xC0	; 192
     fb8:	7f 4f       	sbci	r23, 0xFF	; 255
     fba:	6f 8b       	std	Y+23, r22	; 0x17
     fbc:	22 23       	and	r18, r18
     fbe:	29 f0       	breq	.+10     	; 0xfca <_ZN13LiquidCrystal5beginEhhh+0x40>
     fc0:	41 30       	cpi	r20, 0x01	; 1
     fc2:	19 f4       	brne	.+6      	; 0xfca <_ZN13LiquidCrystal5beginEhhh+0x40>
     fc4:	8f 85       	ldd	r24, Y+15	; 0x0f
     fc6:	84 60       	ori	r24, 0x04	; 4
     fc8:	8f 87       	std	Y+15, r24	; 0x0f
     fca:	61 e0       	ldi	r22, 0x01	; 1
     fcc:	8c 81       	ldd	r24, Y+4	; 0x04
     fce:	0e 94 48 02 	call	0x490	; 0x490 <pinMode>
     fd2:	8d 81       	ldd	r24, Y+5	; 0x05
     fd4:	8f 3f       	cpi	r24, 0xFF	; 255
     fd6:	19 f0       	breq	.+6      	; 0xfde <_ZN13LiquidCrystal5beginEhhh+0x54>
     fd8:	61 e0       	ldi	r22, 0x01	; 1
     fda:	0e 94 48 02 	call	0x490	; 0x490 <pinMode>
     fde:	61 e0       	ldi	r22, 0x01	; 1
     fe0:	8e 81       	ldd	r24, Y+6	; 0x06
     fe2:	0e 94 48 02 	call	0x490	; 0x490 <pinMode>
     fe6:	7e 01       	movw	r14, r28
     fe8:	87 e0       	ldi	r24, 0x07	; 7
     fea:	e8 0e       	add	r14, r24
     fec:	f1 1c       	adc	r15, r1
     fee:	00 e0       	ldi	r16, 0x00	; 0
     ff0:	10 e0       	ldi	r17, 0x00	; 0
     ff2:	68 94       	set
     ff4:	aa 24       	eor	r10, r10
     ff6:	a3 f8       	bld	r10, 3
     ff8:	b1 2c       	mov	r11, r1
     ffa:	68 94       	set
     ffc:	cc 24       	eor	r12, r12
     ffe:	c2 f8       	bld	r12, 2
    1000:	d1 2c       	mov	r13, r1
    1002:	8f 85       	ldd	r24, Y+15	; 0x0f
    1004:	84 fd       	sbrc	r24, 4
    1006:	03 c0       	rjmp	.+6      	; 0x100e <_ZN13LiquidCrystal5beginEhhh+0x84>
    1008:	8c 2d       	mov	r24, r12
    100a:	9d 2d       	mov	r25, r13
    100c:	02 c0       	rjmp	.+4      	; 0x1012 <_ZN13LiquidCrystal5beginEhhh+0x88>
    100e:	8a 2d       	mov	r24, r10
    1010:	9b 2d       	mov	r25, r11
    1012:	08 17       	cp	r16, r24
    1014:	19 07       	cpc	r17, r25
    1016:	4c f4       	brge	.+18     	; 0x102a <_ZN13LiquidCrystal5beginEhhh+0xa0>
    1018:	61 e0       	ldi	r22, 0x01	; 1
    101a:	f7 01       	movw	r30, r14
    101c:	81 91       	ld	r24, Z+
    101e:	7f 01       	movw	r14, r30
    1020:	0e 94 48 02 	call	0x490	; 0x490 <pinMode>
    1024:	0f 5f       	subi	r16, 0xFF	; 255
    1026:	1f 4f       	sbci	r17, 0xFF	; 255
    1028:	ec cf       	rjmp	.-40     	; 0x1002 <_ZN13LiquidCrystal5beginEhhh+0x78>
    102a:	80 e5       	ldi	r24, 0x50	; 80
    102c:	93 ec       	ldi	r25, 0xC3	; 195
    102e:	0e 94 84 02 	call	0x508	; 0x508 <delayMicroseconds>
    1032:	60 e0       	ldi	r22, 0x00	; 0
    1034:	8c 81       	ldd	r24, Y+4	; 0x04
    1036:	0e 94 fb 01 	call	0x3f6	; 0x3f6 <digitalWrite>
    103a:	60 e0       	ldi	r22, 0x00	; 0
    103c:	8e 81       	ldd	r24, Y+6	; 0x06
    103e:	0e 94 fb 01 	call	0x3f6	; 0x3f6 <digitalWrite>
    1042:	8d 81       	ldd	r24, Y+5	; 0x05
    1044:	8f 3f       	cpi	r24, 0xFF	; 255
    1046:	19 f0       	breq	.+6      	; 0x104e <_ZN13LiquidCrystal5beginEhhh+0xc4>
    1048:	60 e0       	ldi	r22, 0x00	; 0
    104a:	0e 94 fb 01 	call	0x3f6	; 0x3f6 <digitalWrite>
    104e:	6f 85       	ldd	r22, Y+15	; 0x0f
    1050:	64 fd       	sbrc	r22, 4
    1052:	1d c0       	rjmp	.+58     	; 0x108e <_ZN13LiquidCrystal5beginEhhh+0x104>
    1054:	63 e0       	ldi	r22, 0x03	; 3
    1056:	ce 01       	movw	r24, r28
    1058:	0e 94 17 07 	call	0xe2e	; 0xe2e <_ZN13LiquidCrystal10write4bitsEh>
    105c:	84 e9       	ldi	r24, 0x94	; 148
    105e:	91 e1       	ldi	r25, 0x11	; 17
    1060:	0e 94 84 02 	call	0x508	; 0x508 <delayMicroseconds>
    1064:	63 e0       	ldi	r22, 0x03	; 3
    1066:	ce 01       	movw	r24, r28
    1068:	0e 94 17 07 	call	0xe2e	; 0xe2e <_ZN13LiquidCrystal10write4bitsEh>
    106c:	84 e9       	ldi	r24, 0x94	; 148
    106e:	91 e1       	ldi	r25, 0x11	; 17
    1070:	0e 94 84 02 	call	0x508	; 0x508 <delayMicroseconds>
    1074:	63 e0       	ldi	r22, 0x03	; 3
    1076:	ce 01       	movw	r24, r28
    1078:	0e 94 17 07 	call	0xe2e	; 0xe2e <_ZN13LiquidCrystal10write4bitsEh>
    107c:	86 e9       	ldi	r24, 0x96	; 150
    107e:	90 e0       	ldi	r25, 0x00	; 0
    1080:	0e 94 84 02 	call	0x508	; 0x508 <delayMicroseconds>
    1084:	62 e0       	ldi	r22, 0x02	; 2
    1086:	ce 01       	movw	r24, r28
    1088:	0e 94 17 07 	call	0xe2e	; 0xe2e <_ZN13LiquidCrystal10write4bitsEh>
    108c:	19 c0       	rjmp	.+50     	; 0x10c0 <_ZN13LiquidCrystal5beginEhhh+0x136>
    108e:	60 62       	ori	r22, 0x20	; 32
    1090:	40 e0       	ldi	r20, 0x00	; 0
    1092:	ce 01       	movw	r24, r28
    1094:	0e 94 71 07 	call	0xee2	; 0xee2 <_ZN13LiquidCrystal4sendEhh>
    1098:	84 e9       	ldi	r24, 0x94	; 148
    109a:	91 e1       	ldi	r25, 0x11	; 17
    109c:	0e 94 84 02 	call	0x508	; 0x508 <delayMicroseconds>
    10a0:	6f 85       	ldd	r22, Y+15	; 0x0f
    10a2:	60 62       	ori	r22, 0x20	; 32
    10a4:	40 e0       	ldi	r20, 0x00	; 0
    10a6:	ce 01       	movw	r24, r28
    10a8:	0e 94 71 07 	call	0xee2	; 0xee2 <_ZN13LiquidCrystal4sendEhh>
    10ac:	86 e9       	ldi	r24, 0x96	; 150
    10ae:	90 e0       	ldi	r25, 0x00	; 0
    10b0:	0e 94 84 02 	call	0x508	; 0x508 <delayMicroseconds>
    10b4:	6f 85       	ldd	r22, Y+15	; 0x0f
    10b6:	60 62       	ori	r22, 0x20	; 32
    10b8:	40 e0       	ldi	r20, 0x00	; 0
    10ba:	ce 01       	movw	r24, r28
    10bc:	0e 94 71 07 	call	0xee2	; 0xee2 <_ZN13LiquidCrystal4sendEhh>
    10c0:	6f 85       	ldd	r22, Y+15	; 0x0f
    10c2:	60 62       	ori	r22, 0x20	; 32
    10c4:	40 e0       	ldi	r20, 0x00	; 0
    10c6:	ce 01       	movw	r24, r28
    10c8:	0e 94 71 07 	call	0xee2	; 0xee2 <_ZN13LiquidCrystal4sendEhh>
    10cc:	84 e0       	ldi	r24, 0x04	; 4
    10ce:	88 8b       	std	Y+16, r24	; 0x10
    10d0:	ce 01       	movw	r24, r28
    10d2:	0e 94 bb 07 	call	0xf76	; 0xf76 <_ZN13LiquidCrystal7displayEv>
    10d6:	ce 01       	movw	r24, r28
    10d8:	0e 94 9d 07 	call	0xf3a	; 0xf3a <_ZN13LiquidCrystal5clearEv>
    10dc:	82 e0       	ldi	r24, 0x02	; 2
    10de:	89 8b       	std	Y+17, r24	; 0x11
    10e0:	40 e0       	ldi	r20, 0x00	; 0
    10e2:	66 e0       	ldi	r22, 0x06	; 6
    10e4:	ce 01       	movw	r24, r28
    10e6:	0e 94 71 07 	call	0xee2	; 0xee2 <_ZN13LiquidCrystal4sendEhh>
    10ea:	df 91       	pop	r29
    10ec:	cf 91       	pop	r28
    10ee:	1f 91       	pop	r17
    10f0:	0f 91       	pop	r16
    10f2:	ff 90       	pop	r15
    10f4:	ef 90       	pop	r14
    10f6:	df 90       	pop	r13
    10f8:	cf 90       	pop	r12
    10fa:	bf 90       	pop	r11
    10fc:	af 90       	pop	r10
    10fe:	08 95       	ret

00001100 <_ZN13LiquidCrystalC1Ehhhhhh>:
    1100:	cf 92       	push	r12
    1102:	ef 92       	push	r14
    1104:	0f 93       	push	r16
    1106:	fc 01       	movw	r30, r24
    1108:	13 82       	std	Z+3, r1	; 0x03
    110a:	12 82       	std	Z+2, r1	; 0x02
    110c:	82 e2       	ldi	r24, 0x22	; 34
    110e:	91 e0       	ldi	r25, 0x01	; 1
    1110:	91 83       	std	Z+1, r25	; 0x01
    1112:	80 83       	st	Z, r24
    1114:	64 83       	std	Z+4, r22	; 0x04
    1116:	8f ef       	ldi	r24, 0xFF	; 255
    1118:	85 83       	std	Z+5, r24	; 0x05
    111a:	46 83       	std	Z+6, r20	; 0x06
    111c:	27 83       	std	Z+7, r18	; 0x07
    111e:	00 87       	std	Z+8, r16	; 0x08
    1120:	e1 86       	std	Z+9, r14	; 0x09
    1122:	c2 86       	std	Z+10, r12	; 0x0a
    1124:	13 86       	std	Z+11, r1	; 0x0b
    1126:	14 86       	std	Z+12, r1	; 0x0c
    1128:	15 86       	std	Z+13, r1	; 0x0d
    112a:	16 86       	std	Z+14, r1	; 0x0e
    112c:	17 86       	std	Z+15, r1	; 0x0f
    112e:	20 e0       	ldi	r18, 0x00	; 0
    1130:	41 e0       	ldi	r20, 0x01	; 1
    1132:	60 e1       	ldi	r22, 0x10	; 16
    1134:	cf 01       	movw	r24, r30
    1136:	0e 94 c5 07 	call	0xf8a	; 0xf8a <_ZN13LiquidCrystal5beginEhhh>
    113a:	0f 91       	pop	r16
    113c:	ef 90       	pop	r14
    113e:	cf 90       	pop	r12
    1140:	08 95       	ret

00001142 <_ZN13LiquidCrystal5writeEh>:
inline void LiquidCrystal::command(uint8_t value) {
  send(value, LOW);
}

inline size_t LiquidCrystal::write(uint8_t value) {
  send(value, HIGH);
    1142:	41 e0       	ldi	r20, 0x01	; 1
    1144:	0e 94 71 07 	call	0xee2	; 0xee2 <_ZN13LiquidCrystal4sendEhh>
  return 1; // assume sucess
}
    1148:	81 e0       	ldi	r24, 0x01	; 1
    114a:	90 e0       	ldi	r25, 0x00	; 0
    114c:	08 95       	ret

0000114e <_Z8up_keyUpv>:
float arregloTemperaturas[MAX_TEMP];
static uint16_t indice = 0;

void up_keyUp()
{
	lcd.setCursor(0,1);
    114e:	41 e0       	ldi	r20, 0x01	; 1
    1150:	60 e0       	ldi	r22, 0x00	; 0
    1152:	87 e5       	ldi	r24, 0x57	; 87
    1154:	94 e0       	ldi	r25, 0x04	; 4
    1156:	0e 94 a6 07 	call	0xf4c	; 0xf4c <_ZN13LiquidCrystal9setCursorEhh>
	lcd.print("                ");
    115a:	6a e2       	ldi	r22, 0x2A	; 42
    115c:	71 e0       	ldi	r23, 0x01	; 1
    115e:	87 e5       	ldi	r24, 0x57	; 87
    1160:	94 e0       	ldi	r25, 0x04	; 4
    1162:	0e 94 10 04 	call	0x820	; 0x820 <_ZN5Print5printEPKc>
    1166:	08 95       	ret

00001168 <_Z10up_keyDownv>:
	
}

void up_keyDown()
{
	lcd.setCursor(0,1);
    1168:	41 e0       	ldi	r20, 0x01	; 1
    116a:	60 e0       	ldi	r22, 0x00	; 0
    116c:	87 e5       	ldi	r24, 0x57	; 87
    116e:	94 e0       	ldi	r25, 0x04	; 4
    1170:	0e 94 a6 07 	call	0xf4c	; 0xf4c <_ZN13LiquidCrystal9setCursorEhh>
	lcd.print("                ");
    1174:	6a e2       	ldi	r22, 0x2A	; 42
    1176:	71 e0       	ldi	r23, 0x01	; 1
    1178:	87 e5       	ldi	r24, 0x57	; 87
    117a:	94 e0       	ldi	r25, 0x04	; 4
    117c:	0e 94 10 04 	call	0x820	; 0x820 <_ZN5Print5printEPKc>
    1180:	08 95       	ret

00001182 <_Z11up_keyRightv>:
	lcd.print(minimo);
}

void up_keyRight()
{
	lcd.setCursor(0,1);
    1182:	41 e0       	ldi	r20, 0x01	; 1
    1184:	60 e0       	ldi	r22, 0x00	; 0
    1186:	87 e5       	ldi	r24, 0x57	; 87
    1188:	94 e0       	ldi	r25, 0x04	; 4
    118a:	0e 94 a6 07 	call	0xf4c	; 0xf4c <_ZN13LiquidCrystal9setCursorEhh>
	lcd.print("                ");
    118e:	6a e2       	ldi	r22, 0x2A	; 42
    1190:	71 e0       	ldi	r23, 0x01	; 1
    1192:	87 e5       	ldi	r24, 0x57	; 87
    1194:	94 e0       	ldi	r25, 0x04	; 4
    1196:	0e 94 10 04 	call	0x820	; 0x820 <_ZN5Print5printEPKc>
    119a:	08 95       	ret

0000119c <_Z10up_keyLeftv>:
	
}

void up_keyLeft()
{
	lcd.setCursor(0,1);
    119c:	41 e0       	ldi	r20, 0x01	; 1
    119e:	60 e0       	ldi	r22, 0x00	; 0
    11a0:	87 e5       	ldi	r24, 0x57	; 87
    11a2:	94 e0       	ldi	r25, 0x04	; 4
    11a4:	0e 94 a6 07 	call	0xf4c	; 0xf4c <_ZN13LiquidCrystal9setCursorEhh>
	lcd.print("                ");
    11a8:	6a e2       	ldi	r22, 0x2A	; 42
    11aa:	71 e0       	ldi	r23, 0x01	; 1
    11ac:	87 e5       	ldi	r24, 0x57	; 87
    11ae:	94 e0       	ldi	r25, 0x04	; 4
    11b0:	0e 94 10 04 	call	0x820	; 0x820 <_ZN5Print5printEPKc>
    11b4:	08 95       	ret

000011b6 <_Z12up_keySelectv>:
	lcd.print(Temperatura);
}

void up_keySelect()
{
	lcd.setCursor(0,1);
    11b6:	41 e0       	ldi	r20, 0x01	; 1
    11b8:	60 e0       	ldi	r22, 0x00	; 0
    11ba:	87 e5       	ldi	r24, 0x57	; 87
    11bc:	94 e0       	ldi	r25, 0x04	; 4
    11be:	0e 94 a6 07 	call	0xf4c	; 0xf4c <_ZN13LiquidCrystal9setCursorEhh>
	lcd.print("                ");
    11c2:	6a e2       	ldi	r22, 0x2A	; 42
    11c4:	71 e0       	ldi	r23, 0x01	; 1
    11c6:	87 e5       	ldi	r24, 0x57	; 87
    11c8:	94 e0       	ldi	r25, 0x04	; 4
    11ca:	0e 94 10 04 	call	0x820	; 0x820 <_ZN5Print5printEPKc>
    11ce:	08 95       	ret

000011d0 <_Z14down_keySelectv>:
}

void down_keySelect()
{
	lcd.setCursor(0,1);
    11d0:	41 e0       	ldi	r20, 0x01	; 1
    11d2:	60 e0       	ldi	r22, 0x00	; 0
    11d4:	87 e5       	ldi	r24, 0x57	; 87
    11d6:	94 e0       	ldi	r25, 0x04	; 4
    11d8:	0e 94 a6 07 	call	0xf4c	; 0xf4c <_ZN13LiquidCrystal9setCursorEhh>
	lcd.print("                ");
    11dc:	6a e2       	ldi	r22, 0x2A	; 42
    11de:	71 e0       	ldi	r23, 0x01	; 1
    11e0:	87 e5       	ldi	r24, 0x57	; 87
    11e2:	94 e0       	ldi	r25, 0x04	; 4
    11e4:	0e 94 10 04 	call	0x820	; 0x820 <_ZN5Print5printEPKc>
    11e8:	08 95       	ret

000011ea <_Z10down_keyUpv>:
	lcd.setCursor(0,1);
	lcd.print("                ");
}

void down_keyUp()
{
    11ea:	8f 92       	push	r8
    11ec:	9f 92       	push	r9
    11ee:	af 92       	push	r10
    11f0:	bf 92       	push	r11
    11f2:	cf 92       	push	r12
    11f4:	df 92       	push	r13
    11f6:	ef 92       	push	r14
    11f8:	ff 92       	push	r15
    11fa:	0f 93       	push	r16
    11fc:	1f 93       	push	r17
    11fe:	cf 93       	push	r28
    1200:	df 93       	push	r29
	lcd.setCursor(0,1);
    1202:	41 e0       	ldi	r20, 0x01	; 1
    1204:	60 e0       	ldi	r22, 0x00	; 0
    1206:	87 e5       	ldi	r24, 0x57	; 87
    1208:	94 e0       	ldi	r25, 0x04	; 4
    120a:	0e 94 a6 07 	call	0xf4c	; 0xf4c <_ZN13LiquidCrystal9setCursorEhh>
	lcd.print("MAX. C ");
    120e:	6b e3       	ldi	r22, 0x3B	; 59
    1210:	71 e0       	ldi	r23, 0x01	; 1
    1212:	87 e5       	ldi	r24, 0x57	; 87
    1214:	94 e0       	ldi	r25, 0x04	; 4
    1216:	0e 94 10 04 	call	0x820	; 0x820 <_ZN5Print5printEPKc>
	
	float mayor = arregloTemperaturas[0];
    121a:	80 90 c3 02 	lds	r8, 0x02C3	; 0x8002c3 <arregloTemperaturas>
    121e:	90 90 c4 02 	lds	r9, 0x02C4	; 0x8002c4 <arregloTemperaturas+0x1>
    1222:	a0 90 c5 02 	lds	r10, 0x02C5	; 0x8002c5 <arregloTemperaturas+0x2>
    1226:	b0 90 c6 02 	lds	r11, 0x02C6	; 0x8002c6 <arregloTemperaturas+0x3>
    122a:	c7 ec       	ldi	r28, 0xC7	; 199
    122c:	d2 e0       	ldi	r29, 0x02	; 2
    122e:	03 e5       	ldi	r16, 0x53	; 83
    1230:	14 e0       	ldi	r17, 0x04	; 4
	int16_t i;
	for (i = 1; i < MAX_TEMP ; i++)
	{
		if (mayor < arregloTemperaturas[i])
    1232:	c9 90       	ld	r12, Y+
    1234:	d9 90       	ld	r13, Y+
    1236:	e9 90       	ld	r14, Y+
    1238:	f9 90       	ld	r15, Y+
    123a:	28 2d       	mov	r18, r8
    123c:	39 2d       	mov	r19, r9
    123e:	4a 2d       	mov	r20, r10
    1240:	5b 2d       	mov	r21, r11
    1242:	c7 01       	movw	r24, r14
    1244:	b6 01       	movw	r22, r12
    1246:	0e 94 ee 0d 	call	0x1bdc	; 0x1bdc <__gesf2>
    124a:	18 16       	cp	r1, r24
    124c:	24 f4       	brge	.+8      	; 0x1256 <_Z10down_keyUpv+0x6c>
		{
			mayor = arregloTemperaturas[i];
    124e:	8c 2c       	mov	r8, r12
    1250:	9d 2c       	mov	r9, r13
    1252:	ae 2c       	mov	r10, r14
    1254:	bf 2c       	mov	r11, r15
	lcd.setCursor(0,1);
	lcd.print("MAX. C ");
	
	float mayor = arregloTemperaturas[0];
	int16_t i;
	for (i = 1; i < MAX_TEMP ; i++)
    1256:	c0 17       	cp	r28, r16
    1258:	d1 07       	cpc	r29, r17
    125a:	59 f7       	brne	.-42     	; 0x1232 <_Z10down_keyUpv+0x48>
		{
			mayor = arregloTemperaturas[i];
		}
	}
	
	lcd.setCursor(11,1);
    125c:	41 e0       	ldi	r20, 0x01	; 1
    125e:	6b e0       	ldi	r22, 0x0B	; 11
    1260:	87 e5       	ldi	r24, 0x57	; 87
    1262:	94 e0       	ldi	r25, 0x04	; 4
    1264:	0e 94 a6 07 	call	0xf4c	; 0xf4c <_ZN13LiquidCrystal9setCursorEhh>
	lcd.print(mayor);
    1268:	22 e0       	ldi	r18, 0x02	; 2
    126a:	30 e0       	ldi	r19, 0x00	; 0
    126c:	48 2d       	mov	r20, r8
    126e:	59 2d       	mov	r21, r9
    1270:	6a 2d       	mov	r22, r10
    1272:	7b 2d       	mov	r23, r11
    1274:	87 e5       	ldi	r24, 0x57	; 87
    1276:	94 e0       	ldi	r25, 0x04	; 4
    1278:	0e 94 34 03 	call	0x668	; 0x668 <_ZN5Print5printEdi>
	
}
    127c:	df 91       	pop	r29
    127e:	cf 91       	pop	r28
    1280:	1f 91       	pop	r17
    1282:	0f 91       	pop	r16
    1284:	ff 90       	pop	r15
    1286:	ef 90       	pop	r14
    1288:	df 90       	pop	r13
    128a:	cf 90       	pop	r12
    128c:	bf 90       	pop	r11
    128e:	af 90       	pop	r10
    1290:	9f 90       	pop	r9
    1292:	8f 90       	pop	r8
    1294:	08 95       	ret

00001296 <_Z12down_keyDownv>:
	lcd.setCursor(0,1);
	lcd.print("                ");
}

void down_keyDown()
{
    1296:	8f 92       	push	r8
    1298:	9f 92       	push	r9
    129a:	af 92       	push	r10
    129c:	bf 92       	push	r11
    129e:	cf 92       	push	r12
    12a0:	df 92       	push	r13
    12a2:	ef 92       	push	r14
    12a4:	ff 92       	push	r15
    12a6:	0f 93       	push	r16
    12a8:	1f 93       	push	r17
    12aa:	cf 93       	push	r28
    12ac:	df 93       	push	r29
	lcd.setCursor(0,1);
    12ae:	41 e0       	ldi	r20, 0x01	; 1
    12b0:	60 e0       	ldi	r22, 0x00	; 0
    12b2:	87 e5       	ldi	r24, 0x57	; 87
    12b4:	94 e0       	ldi	r25, 0x04	; 4
    12b6:	0e 94 a6 07 	call	0xf4c	; 0xf4c <_ZN13LiquidCrystal9setCursorEhh>
	lcd.print("MIN. C ");
    12ba:	64 e4       	ldi	r22, 0x44	; 68
    12bc:	71 e0       	ldi	r23, 0x01	; 1
    12be:	87 e5       	ldi	r24, 0x57	; 87
    12c0:	94 e0       	ldi	r25, 0x04	; 4
    12c2:	0e 94 10 04 	call	0x820	; 0x820 <_ZN5Print5printEPKc>
	
	float minimo = arregloTemperaturas[0];
    12c6:	80 90 c3 02 	lds	r8, 0x02C3	; 0x8002c3 <arregloTemperaturas>
    12ca:	90 90 c4 02 	lds	r9, 0x02C4	; 0x8002c4 <arregloTemperaturas+0x1>
    12ce:	a0 90 c5 02 	lds	r10, 0x02C5	; 0x8002c5 <arregloTemperaturas+0x2>
    12d2:	b0 90 c6 02 	lds	r11, 0x02C6	; 0x8002c6 <arregloTemperaturas+0x3>
    12d6:	c7 ec       	ldi	r28, 0xC7	; 199
    12d8:	d2 e0       	ldi	r29, 0x02	; 2
    12da:	03 e5       	ldi	r16, 0x53	; 83
    12dc:	14 e0       	ldi	r17, 0x04	; 4
	int16_t i;
	for (i = 1; i < MAX_TEMP ; i++)
	{
		if (minimo > arregloTemperaturas[i])
    12de:	c9 90       	ld	r12, Y+
    12e0:	d9 90       	ld	r13, Y+
    12e2:	e9 90       	ld	r14, Y+
    12e4:	f9 90       	ld	r15, Y+
    12e6:	28 2d       	mov	r18, r8
    12e8:	39 2d       	mov	r19, r9
    12ea:	4a 2d       	mov	r20, r10
    12ec:	5b 2d       	mov	r21, r11
    12ee:	c7 01       	movw	r24, r14
    12f0:	b6 01       	movw	r22, r12
    12f2:	0e 94 c5 0c 	call	0x198a	; 0x198a <__cmpsf2>
    12f6:	88 23       	and	r24, r24
    12f8:	24 f4       	brge	.+8      	; 0x1302 <_Z12down_keyDownv+0x6c>
		{
			minimo = arregloTemperaturas[i];
    12fa:	8c 2c       	mov	r8, r12
    12fc:	9d 2c       	mov	r9, r13
    12fe:	ae 2c       	mov	r10, r14
    1300:	bf 2c       	mov	r11, r15
	lcd.setCursor(0,1);
	lcd.print("MIN. C ");
	
	float minimo = arregloTemperaturas[0];
	int16_t i;
	for (i = 1; i < MAX_TEMP ; i++)
    1302:	c0 17       	cp	r28, r16
    1304:	d1 07       	cpc	r29, r17
    1306:	59 f7       	brne	.-42     	; 0x12de <_Z12down_keyDownv+0x48>
		{
			minimo = arregloTemperaturas[i];
		}
	}
	
	lcd.setCursor(11,1);
    1308:	41 e0       	ldi	r20, 0x01	; 1
    130a:	6b e0       	ldi	r22, 0x0B	; 11
    130c:	87 e5       	ldi	r24, 0x57	; 87
    130e:	94 e0       	ldi	r25, 0x04	; 4
    1310:	0e 94 a6 07 	call	0xf4c	; 0xf4c <_ZN13LiquidCrystal9setCursorEhh>
	lcd.print(minimo);
    1314:	22 e0       	ldi	r18, 0x02	; 2
    1316:	30 e0       	ldi	r19, 0x00	; 0
    1318:	48 2d       	mov	r20, r8
    131a:	59 2d       	mov	r21, r9
    131c:	6a 2d       	mov	r22, r10
    131e:	7b 2d       	mov	r23, r11
    1320:	87 e5       	ldi	r24, 0x57	; 87
    1322:	94 e0       	ldi	r25, 0x04	; 4
    1324:	0e 94 34 03 	call	0x668	; 0x668 <_ZN5Print5printEdi>
}
    1328:	df 91       	pop	r29
    132a:	cf 91       	pop	r28
    132c:	1f 91       	pop	r17
    132e:	0f 91       	pop	r16
    1330:	ff 90       	pop	r15
    1332:	ef 90       	pop	r14
    1334:	df 90       	pop	r13
    1336:	cf 90       	pop	r12
    1338:	bf 90       	pop	r11
    133a:	af 90       	pop	r10
    133c:	9f 90       	pop	r9
    133e:	8f 90       	pop	r8
    1340:	08 95       	ret

00001342 <_Z13down_keyRightv>:
	lcd.setCursor(0,1);
	lcd.print("                ");
}

void down_keyRight()
{
    1342:	cf 92       	push	r12
    1344:	df 92       	push	r13
    1346:	ef 92       	push	r14
    1348:	ff 92       	push	r15
    134a:	0f 93       	push	r16
    134c:	1f 93       	push	r17
    134e:	cf 93       	push	r28
    1350:	df 93       	push	r29
	lcd.setCursor(0,1);
    1352:	41 e0       	ldi	r20, 0x01	; 1
    1354:	60 e0       	ldi	r22, 0x00	; 0
    1356:	87 e5       	ldi	r24, 0x57	; 87
    1358:	94 e0       	ldi	r25, 0x04	; 4
    135a:	0e 94 a6 07 	call	0xf4c	; 0xf4c <_ZN13LiquidCrystal9setCursorEhh>
	lcd.print("PROM. C ");
    135e:	6d e4       	ldi	r22, 0x4D	; 77
    1360:	71 e0       	ldi	r23, 0x01	; 1
    1362:	87 e5       	ldi	r24, 0x57	; 87
    1364:	94 e0       	ldi	r25, 0x04	; 4
    1366:	0e 94 10 04 	call	0x820	; 0x820 <_ZN5Print5printEPKc>
    136a:	c7 ec       	ldi	r28, 0xC7	; 199
    136c:	d2 e0       	ldi	r29, 0x02	; 2
    136e:	03 e5       	ldi	r16, 0x53	; 83
    1370:	14 e0       	ldi	r17, 0x04	; 4
	
	float promedio=0;
    1372:	c1 2c       	mov	r12, r1
    1374:	d1 2c       	mov	r13, r1
    1376:	76 01       	movw	r14, r12
	int16_t i;
	for (i = 1; i < MAX_TEMP ; i++)
	{
		promedio = promedio + arregloTemperaturas[i];
    1378:	29 91       	ld	r18, Y+
    137a:	39 91       	ld	r19, Y+
    137c:	49 91       	ld	r20, Y+
    137e:	59 91       	ld	r21, Y+
    1380:	c7 01       	movw	r24, r14
    1382:	b6 01       	movw	r22, r12
    1384:	0e 94 59 0c 	call	0x18b2	; 0x18b2 <__addsf3>
    1388:	6b 01       	movw	r12, r22
    138a:	7c 01       	movw	r14, r24
	lcd.setCursor(0,1);
	lcd.print("PROM. C ");
	
	float promedio=0;
	int16_t i;
	for (i = 1; i < MAX_TEMP ; i++)
    138c:	c0 17       	cp	r28, r16
    138e:	d1 07       	cpc	r29, r17
    1390:	99 f7       	brne	.-26     	; 0x1378 <_Z13down_keyRightv+0x36>
	{
		promedio = promedio + arregloTemperaturas[i];
	}
	promedio = promedio / 100;
	
	lcd.setCursor(11,1);
    1392:	41 e0       	ldi	r20, 0x01	; 1
    1394:	6b e0       	ldi	r22, 0x0B	; 11
    1396:	87 e5       	ldi	r24, 0x57	; 87
    1398:	94 e0       	ldi	r25, 0x04	; 4
    139a:	0e 94 a6 07 	call	0xf4c	; 0xf4c <_ZN13LiquidCrystal9setCursorEhh>
	lcd.print(promedio);
    139e:	20 e0       	ldi	r18, 0x00	; 0
    13a0:	30 e0       	ldi	r19, 0x00	; 0
    13a2:	48 ec       	ldi	r20, 0xC8	; 200
    13a4:	52 e4       	ldi	r21, 0x42	; 66
    13a6:	c7 01       	movw	r24, r14
    13a8:	b6 01       	movw	r22, r12
    13aa:	0e 94 ca 0c 	call	0x1994	; 0x1994 <__divsf3>
    13ae:	ab 01       	movw	r20, r22
    13b0:	bc 01       	movw	r22, r24
    13b2:	22 e0       	ldi	r18, 0x02	; 2
    13b4:	30 e0       	ldi	r19, 0x00	; 0
    13b6:	87 e5       	ldi	r24, 0x57	; 87
    13b8:	94 e0       	ldi	r25, 0x04	; 4
    13ba:	0e 94 34 03 	call	0x668	; 0x668 <_ZN5Print5printEdi>
	
}
    13be:	df 91       	pop	r29
    13c0:	cf 91       	pop	r28
    13c2:	1f 91       	pop	r17
    13c4:	0f 91       	pop	r16
    13c6:	ff 90       	pop	r15
    13c8:	ef 90       	pop	r14
    13ca:	df 90       	pop	r13
    13cc:	cf 90       	pop	r12
    13ce:	08 95       	ret

000013d0 <_Z12down_keyLeftv>:
	lcd.print("                ");
}

void down_keyLeft()
{
	lcd.setCursor(0,1);
    13d0:	41 e0       	ldi	r20, 0x01	; 1
    13d2:	60 e0       	ldi	r22, 0x00	; 0
    13d4:	87 e5       	ldi	r24, 0x57	; 87
    13d6:	94 e0       	ldi	r25, 0x04	; 4
    13d8:	0e 94 a6 07 	call	0xf4c	; 0xf4c <_ZN13LiquidCrystal9setCursorEhh>
	lcd.print("ACTUAL C ");
    13dc:	67 e5       	ldi	r22, 0x57	; 87
    13de:	71 e0       	ldi	r23, 0x01	; 1
    13e0:	87 e5       	ldi	r24, 0x57	; 87
    13e2:	94 e0       	ldi	r25, 0x04	; 4
    13e4:	0e 94 10 04 	call	0x820	; 0x820 <_ZN5Print5printEPKc>
	lcd.setCursor(11,1);
    13e8:	41 e0       	ldi	r20, 0x01	; 1
    13ea:	6b e0       	ldi	r22, 0x0B	; 11
    13ec:	87 e5       	ldi	r24, 0x57	; 87
    13ee:	94 e0       	ldi	r25, 0x04	; 4
    13f0:	0e 94 a6 07 	call	0xf4c	; 0xf4c <_ZN13LiquidCrystal9setCursorEhh>
	lcd.print(Temperatura);
    13f4:	40 91 53 04 	lds	r20, 0x0453	; 0x800453 <Temperatura>
    13f8:	50 91 54 04 	lds	r21, 0x0454	; 0x800454 <Temperatura+0x1>
    13fc:	60 91 55 04 	lds	r22, 0x0455	; 0x800455 <Temperatura+0x2>
    1400:	70 91 56 04 	lds	r23, 0x0456	; 0x800456 <Temperatura+0x3>
    1404:	22 e0       	ldi	r18, 0x02	; 2
    1406:	30 e0       	ldi	r19, 0x00	; 0
    1408:	87 e5       	ldi	r24, 0x57	; 87
    140a:	94 e0       	ldi	r25, 0x04	; 4
    140c:	0e 94 34 03 	call	0x668	; 0x668 <_ZN5Print5printEdi>
    1410:	08 95       	ret

00001412 <_Z19ProcesarTemperaturai>:
	lcd.setCursor(0,1);
	lcd.print("                ");
}

void ProcesarTemperatura(int sensor_value)
{
    1412:	cf 93       	push	r28
    1414:	df 93       	push	r29
    1416:	ec 01       	movw	r28, r24
	// Calculo de la temperatura segun el valor retornado.
	Temperatura = sensor_value * 1.1 * 100 / 1024;			// formula de mapeo del sensor
    1418:	bc 01       	movw	r22, r24
    141a:	99 0f       	add	r25, r25
    141c:	88 0b       	sbc	r24, r24
    141e:	99 0b       	sbc	r25, r25
    1420:	0e 94 3e 0d 	call	0x1a7c	; 0x1a7c <__floatsisf>
    1424:	2d ec       	ldi	r18, 0xCD	; 205
    1426:	3c ec       	ldi	r19, 0xCC	; 204
    1428:	4c e8       	ldi	r20, 0x8C	; 140
    142a:	5f e3       	ldi	r21, 0x3F	; 63
    142c:	0e 94 f3 0d 	call	0x1be6	; 0x1be6 <__mulsf3>
    1430:	20 e0       	ldi	r18, 0x00	; 0
    1432:	30 e0       	ldi	r19, 0x00	; 0
    1434:	48 ec       	ldi	r20, 0xC8	; 200
    1436:	52 e4       	ldi	r21, 0x42	; 66
    1438:	0e 94 f3 0d 	call	0x1be6	; 0x1be6 <__mulsf3>
    143c:	20 e0       	ldi	r18, 0x00	; 0
    143e:	30 e0       	ldi	r19, 0x00	; 0
    1440:	40 e8       	ldi	r20, 0x80	; 128
    1442:	5a e3       	ldi	r21, 0x3A	; 58
    1444:	0e 94 f3 0d 	call	0x1be6	; 0x1be6 <__mulsf3>
    1448:	60 93 53 04 	sts	0x0453, r22	; 0x800453 <Temperatura>
    144c:	70 93 54 04 	sts	0x0454, r23	; 0x800454 <Temperatura+0x1>
    1450:	80 93 55 04 	sts	0x0455, r24	; 0x800455 <Temperatura+0x2>
    1454:	90 93 56 04 	sts	0x0456, r25	; 0x800456 <Temperatura+0x3>
	arregloTemperaturas[indice] = Temperatura;
    1458:	40 91 c1 02 	lds	r20, 0x02C1	; 0x8002c1 <_ZL6indice>
    145c:	50 91 c2 02 	lds	r21, 0x02C2	; 0x8002c2 <_ZL6indice+0x1>
    1460:	fa 01       	movw	r30, r20
    1462:	ee 0f       	add	r30, r30
    1464:	ff 1f       	adc	r31, r31
    1466:	ee 0f       	add	r30, r30
    1468:	ff 1f       	adc	r31, r31
    146a:	ed 53       	subi	r30, 0x3D	; 61
    146c:	fd 4f       	sbci	r31, 0xFD	; 253
    146e:	60 83       	st	Z, r22
    1470:	71 83       	std	Z+1, r23	; 0x01
    1472:	82 83       	std	Z+2, r24	; 0x02
    1474:	93 83       	std	Z+3, r25	; 0x03
	indice = (indice + 1) % MAX_TEMP;
    1476:	4f 5f       	subi	r20, 0xFF	; 255
    1478:	5f 4f       	sbci	r21, 0xFF	; 255
    147a:	9a 01       	movw	r18, r20
    147c:	36 95       	lsr	r19
    147e:	27 95       	ror	r18
    1480:	36 95       	lsr	r19
    1482:	27 95       	ror	r18
    1484:	ab e7       	ldi	r26, 0x7B	; 123
    1486:	b4 e1       	ldi	r27, 0x14	; 20
    1488:	0e 94 60 0e 	call	0x1cc0	; 0x1cc0 <__umulhisi3>
    148c:	96 95       	lsr	r25
    148e:	87 95       	ror	r24
    1490:	64 e6       	ldi	r22, 0x64	; 100
    1492:	68 9f       	mul	r22, r24
    1494:	90 01       	movw	r18, r0
    1496:	69 9f       	mul	r22, r25
    1498:	30 0d       	add	r19, r0
    149a:	11 24       	eor	r1, r1
    149c:	42 1b       	sub	r20, r18
    149e:	53 0b       	sbc	r21, r19
    14a0:	50 93 c2 02 	sts	0x02C2, r21	; 0x8002c2 <_ZL6indice+0x1>
    14a4:	40 93 c1 02 	sts	0x02C1, r20	; 0x8002c1 <_ZL6indice>
	Serial.println("hola llegue al procesar temperatura");
    14a8:	62 e6       	ldi	r22, 0x62	; 98
    14aa:	71 e0       	ldi	r23, 0x01	; 1
    14ac:	86 e9       	ldi	r24, 0x96	; 150
    14ae:	91 e0       	ldi	r25, 0x01	; 1
    14b0:	0e 94 20 03 	call	0x640	; 0x640 <_ZN5Print7printlnEPKc>
	Serial.println(sensor_value);
    14b4:	4a e0       	ldi	r20, 0x0A	; 10
    14b6:	50 e0       	ldi	r21, 0x00	; 0
    14b8:	be 01       	movw	r22, r28
    14ba:	86 e9       	ldi	r24, 0x96	; 150
    14bc:	91 e0       	ldi	r25, 0x01	; 1
    14be:	0e 94 d9 02 	call	0x5b2	; 0x5b2 <_ZN5Print7printlnEii>
}
    14c2:	df 91       	pop	r29
    14c4:	cf 91       	pop	r28
    14c6:	08 95       	ret

000014c8 <setup>:
  public:
    inline HardwareSerial(
      volatile uint8_t *ubrrh, volatile uint8_t *ubrrl,
      volatile uint8_t *ucsra, volatile uint8_t *ucsrb,
      volatile uint8_t *ucsrc, volatile uint8_t *udr);
    void begin(unsigned long baud) { begin(baud, SERIAL_8N1); }
    14c8:	26 e0       	ldi	r18, 0x06	; 6
    14ca:	40 e8       	ldi	r20, 0x80	; 128
    14cc:	55 e2       	ldi	r21, 0x25	; 37
    14ce:	60 e0       	ldi	r22, 0x00	; 0
    14d0:	70 e0       	ldi	r23, 0x00	; 0
    14d2:	86 e9       	ldi	r24, 0x96	; 150
    14d4:	91 e0       	ldi	r25, 0x01	; 1
    14d6:	0e 94 6a 04 	call	0x8d4	; 0x8d4 <_ZN14HardwareSerial5beginEmh>

void setup()
{
	Serial.begin (9600);
	lcd.begin(numCols,numRows);
    14da:	20 e0       	ldi	r18, 0x00	; 0
    14dc:	42 e0       	ldi	r20, 0x02	; 2
    14de:	60 e1       	ldi	r22, 0x10	; 16
    14e0:	87 e5       	ldi	r24, 0x57	; 87
    14e2:	94 e0       	ldi	r25, 0x04	; 4
    14e4:	0e 94 c5 07 	call	0xf8a	; 0xf8a <_ZN13LiquidCrystal5beginEhhh>
	keyboard_init();
    14e8:	0e 94 e3 06 	call	0xdc6	; 0xdc6 <_Z13keyboard_initv>
	fnqueue_init();
    14ec:	0e 94 02 06 	call	0xc04	; 0xc04 <_Z12fnqueue_initv>
	
	sensor_init(ProcesarTemperatura);
    14f0:	89 e0       	ldi	r24, 0x09	; 9
    14f2:	9a e0       	ldi	r25, 0x0A	; 10
    14f4:	0e 94 ec 0a 	call	0x15d8	; 0x15d8 <_Z11sensor_initPFviE>
	
	// callbacks del keyboard
	key_up_callback(up_keyUp, TECLAUP);
    14f8:	61 e0       	ldi	r22, 0x01	; 1
    14fa:	70 e0       	ldi	r23, 0x00	; 0
    14fc:	87 ea       	ldi	r24, 0xA7	; 167
    14fe:	98 e0       	ldi	r25, 0x08	; 8
    1500:	0e 94 c9 06 	call	0xd92	; 0xd92 <_Z15key_up_callbackPFvvEi>
	key_down_callback(down_keyUp, TECLAUP);
    1504:	61 e0       	ldi	r22, 0x01	; 1
    1506:	70 e0       	ldi	r23, 0x00	; 0
    1508:	85 ef       	ldi	r24, 0xF5	; 245
    150a:	98 e0       	ldi	r25, 0x08	; 8
    150c:	0e 94 d6 06 	call	0xdac	; 0xdac <_Z17key_down_callbackPFvvEi>
	key_up_callback(up_keyDown, TECLADOWN);
    1510:	62 e0       	ldi	r22, 0x02	; 2
    1512:	70 e0       	ldi	r23, 0x00	; 0
    1514:	84 eb       	ldi	r24, 0xB4	; 180
    1516:	98 e0       	ldi	r25, 0x08	; 8
    1518:	0e 94 c9 06 	call	0xd92	; 0xd92 <_Z15key_up_callbackPFvvEi>
	key_down_callback(down_keyDown, TECLADOWN);
    151c:	62 e0       	ldi	r22, 0x02	; 2
    151e:	70 e0       	ldi	r23, 0x00	; 0
    1520:	8b e4       	ldi	r24, 0x4B	; 75
    1522:	99 e0       	ldi	r25, 0x09	; 9
    1524:	0e 94 d6 06 	call	0xdac	; 0xdac <_Z17key_down_callbackPFvvEi>
	key_up_callback(up_keyLeft, TECLALEFT);
    1528:	63 e0       	ldi	r22, 0x03	; 3
    152a:	70 e0       	ldi	r23, 0x00	; 0
    152c:	8e ec       	ldi	r24, 0xCE	; 206
    152e:	98 e0       	ldi	r25, 0x08	; 8
    1530:	0e 94 c9 06 	call	0xd92	; 0xd92 <_Z15key_up_callbackPFvvEi>
	key_down_callback(down_keyLeft, TECLALEFT);
    1534:	63 e0       	ldi	r22, 0x03	; 3
    1536:	70 e0       	ldi	r23, 0x00	; 0
    1538:	88 ee       	ldi	r24, 0xE8	; 232
    153a:	99 e0       	ldi	r25, 0x09	; 9
    153c:	0e 94 d6 06 	call	0xdac	; 0xdac <_Z17key_down_callbackPFvvEi>
	key_up_callback(up_keyRight, TECLARIGHT);
    1540:	60 e0       	ldi	r22, 0x00	; 0
    1542:	70 e0       	ldi	r23, 0x00	; 0
    1544:	81 ec       	ldi	r24, 0xC1	; 193
    1546:	98 e0       	ldi	r25, 0x08	; 8
    1548:	0e 94 c9 06 	call	0xd92	; 0xd92 <_Z15key_up_callbackPFvvEi>
	key_down_callback(down_keyRight, TECLARIGHT);
    154c:	60 e0       	ldi	r22, 0x00	; 0
    154e:	70 e0       	ldi	r23, 0x00	; 0
    1550:	81 ea       	ldi	r24, 0xA1	; 161
    1552:	99 e0       	ldi	r25, 0x09	; 9
    1554:	0e 94 d6 06 	call	0xdac	; 0xdac <_Z17key_down_callbackPFvvEi>
	key_up_callback(up_keySelect, TECLASELECT);
    1558:	64 e0       	ldi	r22, 0x04	; 4
    155a:	70 e0       	ldi	r23, 0x00	; 0
    155c:	8b ed       	ldi	r24, 0xDB	; 219
    155e:	98 e0       	ldi	r25, 0x08	; 8
    1560:	0e 94 c9 06 	call	0xd92	; 0xd92 <_Z15key_up_callbackPFvvEi>
	key_down_callback(down_keySelect, TECLASELECT);
    1564:	64 e0       	ldi	r22, 0x04	; 4
    1566:	70 e0       	ldi	r23, 0x00	; 0
    1568:	88 ee       	ldi	r24, 0xE8	; 232
    156a:	98 e0       	ldi	r25, 0x08	; 8
    156c:	0e 94 d6 06 	call	0xdac	; 0xdac <_Z17key_down_callbackPFvvEi>
    1570:	08 95       	ret

00001572 <loop>:
	
}

void loop()
{
	fnqueue_run();
    1572:	0e 94 0a 06 	call	0xc14	; 0xc14 <_Z11fnqueue_runv>
    1576:	08 95       	ret

00001578 <_GLOBAL__sub_I_lcd>:
}
    1578:	cf 92       	push	r12
    157a:	ef 92       	push	r14
    157c:	0f 93       	push	r16
#include "adc_driver.h"
#include <LiquidCrystal.h>

#define MAX_TEMP 100
// initialize the library with the numbers of the interface pins
LiquidCrystal lcd(8, 9, 4, 5, 6, 7);
    157e:	0f 2e       	mov	r0, r31
    1580:	f7 e0       	ldi	r31, 0x07	; 7
    1582:	cf 2e       	mov	r12, r31
    1584:	f0 2d       	mov	r31, r0
    1586:	0f 2e       	mov	r0, r31
    1588:	f6 e0       	ldi	r31, 0x06	; 6
    158a:	ef 2e       	mov	r14, r31
    158c:	f0 2d       	mov	r31, r0
    158e:	05 e0       	ldi	r16, 0x05	; 5
    1590:	24 e0       	ldi	r18, 0x04	; 4
    1592:	49 e0       	ldi	r20, 0x09	; 9
    1594:	68 e0       	ldi	r22, 0x08	; 8
    1596:	87 e5       	ldi	r24, 0x57	; 87
    1598:	94 e0       	ldi	r25, 0x04	; 4
    159a:	0e 94 80 08 	call	0x1100	; 0x1100 <_ZN13LiquidCrystalC1Ehhhhhh>
}

void loop()
{
	fnqueue_run();
}
    159e:	0f 91       	pop	r16
    15a0:	ef 90       	pop	r14
    15a2:	cf 90       	pop	r12
    15a4:	08 95       	ret

000015a6 <_Z23process_callback_sensorv>:

adc_cfg adc_sensor;

void process_callback_sensor()
{
	callback_sensor (adc_sensor.value);
    15a6:	e0 91 79 04 	lds	r30, 0x0479	; 0x800479 <callback_sensor>
    15aa:	f0 91 7a 04 	lds	r31, 0x047A	; 0x80047a <callback_sensor+0x1>
    15ae:	80 91 73 04 	lds	r24, 0x0473	; 0x800473 <adc_sensor+0x4>
    15b2:	90 91 74 04 	lds	r25, 0x0474	; 0x800474 <adc_sensor+0x5>
    15b6:	09 95       	icall
    15b8:	08 95       	ret

000015ba <_Z14timer_callbackv>:
	}
}

void timer_callback()
{
	store = true;
    15ba:	81 e0       	ldi	r24, 0x01	; 1
    15bc:	80 93 7b 04 	sts	0x047B, r24	; 0x80047b <store>
    15c0:	08 95       	ret

000015c2 <_Z12adc_callbackv>:
}

void adc_callback()
{
	// si tengo que guardar el valor llamo al callback
	if(store)
    15c2:	80 91 7b 04 	lds	r24, 0x047B	; 0x80047b <store>
    15c6:	88 23       	and	r24, r24
    15c8:	31 f0       	breq	.+12     	; 0x15d6 <_Z12adc_callbackv+0x14>
	{
		store=false;
    15ca:	10 92 7b 04 	sts	0x047B, r1	; 0x80047b <store>
		fnqueue_add ( process_callback_sensor );
    15ce:	83 ed       	ldi	r24, 0xD3	; 211
    15d0:	9a e0       	ldi	r25, 0x0A	; 10
    15d2:	0e 94 36 06 	call	0xc6c	; 0xc6c <_Z11fnqueue_addPFvvE>
    15d6:	08 95       	ret

000015d8 <_Z11sensor_initPFviE>:
	store = true;
}

int sensor_init(void (* callback_sen)(int))
{
	callback_sensor = callback_sen;
    15d8:	90 93 7a 04 	sts	0x047A, r25	; 0x80047a <callback_sensor+0x1>
    15dc:	80 93 79 04 	sts	0x0479, r24	; 0x800479 <callback_sensor>

	// inicializo el adc
	adc_sensor.channel = SENSOR_CHN;
    15e0:	ef e6       	ldi	r30, 0x6F	; 111
    15e2:	f4 e0       	ldi	r31, 0x04	; 4
    15e4:	81 e0       	ldi	r24, 0x01	; 1
    15e6:	90 e0       	ldi	r25, 0x00	; 0
    15e8:	91 83       	std	Z+1, r25	; 0x01
    15ea:	80 83       	st	Z, r24
	adc_sensor.callback = adc_callback;
    15ec:	81 ee       	ldi	r24, 0xE1	; 225
    15ee:	9a e0       	ldi	r25, 0x0A	; 10
    15f0:	93 83       	std	Z+3, r25	; 0x03
    15f2:	82 83       	std	Z+2, r24	; 0x02
	adc_sensor.value = 0;
    15f4:	15 82       	std	Z+5, r1	; 0x05
    15f6:	14 82       	std	Z+4, r1	; 0x04
	adc_sensor.active = 0;
    15f8:	17 82       	std	Z+7, r1	; 0x07
    15fa:	16 82       	std	Z+6, r1	; 0x06
	adc_sensor.finish_convertion = 0;
    15fc:	11 86       	std	Z+9, r1	; 0x09
    15fe:	10 86       	std	Z+8, r1	; 0x08
	adc_init(&adc_sensor);
    1600:	cf 01       	movw	r24, r30
    1602:	0e 94 ec 04 	call	0x9d8	; 0x9d8 <_Z8adc_initP7adc_cfg>
	
	// inicializo el timer
	timer_t *timer = timers_new(timer_callback);
    1606:	8d ed       	ldi	r24, 0xDD	; 221
    1608:	9a e0       	ldi	r25, 0x0A	; 10
    160a:	0e 94 a1 0b 	call	0x1742	; 0x1742 <_Z10timers_newPFvvE>
	timers_start (timer,F_SAMPLE_SENSOR);
    160e:	6f e0       	ldi	r22, 0x0F	; 15
    1610:	70 e0       	ldi	r23, 0x00	; 0
    1612:	0e 94 d9 0b 	call	0x17b2	; 0x17b2 <_Z12timers_startP5Timerj>
	return true;
    1616:	81 e0       	ldi	r24, 0x01	; 1
    1618:	90 e0       	ldi	r25, 0x00	; 0
    161a:	08 95       	ret

0000161c <_Z10timer_initPFvvE>:
static volatile uint16_t count_timer = 0;

void (*timeout_signal) () = NULL;

void timer_init(void (* callback)(void))
{
    161c:	cf 93       	push	r28
    161e:	df 93       	push	r29
    1620:	ec 01       	movw	r28, r24
	critical_begin();
    1622:	0e 94 c0 05 	call	0xb80	; 0xb80 <_Z14critical_beginv>
	TCCR2A = 0;// set entire TCCR2A register to 0
    1626:	a0 eb       	ldi	r26, 0xB0	; 176
    1628:	b0 e0       	ldi	r27, 0x00	; 0
    162a:	1c 92       	st	X, r1
	TCCR2B = 0;// same for TCCR2B
    162c:	e1 eb       	ldi	r30, 0xB1	; 177
    162e:	f0 e0       	ldi	r31, 0x00	; 0
    1630:	10 82       	st	Z, r1
	TCCR2A |= (1 << WGM21);  // ctc for timer 0
    1632:	8c 91       	ld	r24, X
    1634:	82 60       	ori	r24, 0x02	; 2
    1636:	8c 93       	st	X, r24
	TIMSK2 |= (1<<TOIE2); //setea la interrupcion por overflow
    1638:	a0 e7       	ldi	r26, 0x70	; 112
    163a:	b0 e0       	ldi	r27, 0x00	; 0
    163c:	8c 91       	ld	r24, X
    163e:	81 60       	ori	r24, 0x01	; 1
    1640:	8c 93       	st	X, r24
	TCNT2 = 0; //set timer en 0
    1642:	10 92 b2 00 	sts	0x00B2, r1	; 0x8000b2 <__TEXT_REGION_LENGTH__+0x7e00b2>
	TCCR2B |= (1 << CS21) | (1 << CS20);  // CS#1 y CS#0 bits -> Timer2 preescaler = 64
    1646:	80 81       	ld	r24, Z
    1648:	83 60       	ori	r24, 0x03	; 3
    164a:	80 83       	st	Z, r24
	critical_end();
    164c:	0e 94 e4 05 	call	0xbc8	; 0xbc8 <_Z12critical_endv>

	timeout_signal=callback;
    1650:	d0 93 7d 04 	sts	0x047D, r29	; 0x80047d <timeout_signal+0x1>
    1654:	c0 93 7c 04 	sts	0x047C, r28	; 0x80047c <timeout_signal>
	
}
    1658:	df 91       	pop	r29
    165a:	cf 91       	pop	r28
    165c:	08 95       	ret

0000165e <__vector_9>:

ISR(TIMER2_OVF_vect)
{
    165e:	1f 92       	push	r1
    1660:	0f 92       	push	r0
    1662:	0f b6       	in	r0, 0x3f	; 63
    1664:	0f 92       	push	r0
    1666:	11 24       	eor	r1, r1
    1668:	2f 93       	push	r18
    166a:	3f 93       	push	r19
    166c:	4f 93       	push	r20
    166e:	5f 93       	push	r21
    1670:	6f 93       	push	r22
    1672:	7f 93       	push	r23
    1674:	8f 93       	push	r24
    1676:	9f 93       	push	r25
    1678:	af 93       	push	r26
    167a:	bf 93       	push	r27
    167c:	ef 93       	push	r30
    167e:	ff 93       	push	r31
	TCNT2 = 0;
    1680:	10 92 b2 00 	sts	0x00B2, r1	; 0x8000b2 <__TEXT_REGION_LENGTH__+0x7e00b2>
	count_timer++;
    1684:	80 91 7e 04 	lds	r24, 0x047E	; 0x80047e <_ZL11count_timer>
    1688:	90 91 7f 04 	lds	r25, 0x047F	; 0x80047f <_ZL11count_timer+0x1>
    168c:	01 96       	adiw	r24, 0x01	; 1
    168e:	90 93 7f 04 	sts	0x047F, r25	; 0x80047f <_ZL11count_timer+0x1>
    1692:	80 93 7e 04 	sts	0x047E, r24	; 0x80047e <_ZL11count_timer>
	if(count_timer>9) // cuento 10 interrupciones de 1,024ms -> llamo a la funcion de callback cada 10,24ms
    1696:	80 91 7e 04 	lds	r24, 0x047E	; 0x80047e <_ZL11count_timer>
    169a:	90 91 7f 04 	lds	r25, 0x047F	; 0x80047f <_ZL11count_timer+0x1>
    169e:	0a 97       	sbiw	r24, 0x0a	; 10
    16a0:	50 f0       	brcs	.+20     	; 0x16b6 <__vector_9+0x58>
	{
		count_timer = 0;
    16a2:	10 92 7f 04 	sts	0x047F, r1	; 0x80047f <_ZL11count_timer+0x1>
    16a6:	10 92 7e 04 	sts	0x047E, r1	; 0x80047e <_ZL11count_timer>
		fnqueue_add(timeout_signal);
    16aa:	80 91 7c 04 	lds	r24, 0x047C	; 0x80047c <timeout_signal>
    16ae:	90 91 7d 04 	lds	r25, 0x047D	; 0x80047d <timeout_signal+0x1>
    16b2:	0e 94 36 06 	call	0xc6c	; 0xc6c <_Z11fnqueue_addPFvvE>
	}
    16b6:	ff 91       	pop	r31
    16b8:	ef 91       	pop	r30
    16ba:	bf 91       	pop	r27
    16bc:	af 91       	pop	r26
    16be:	9f 91       	pop	r25
    16c0:	8f 91       	pop	r24
    16c2:	7f 91       	pop	r23
    16c4:	6f 91       	pop	r22
    16c6:	5f 91       	pop	r21
    16c8:	4f 91       	pop	r20
    16ca:	3f 91       	pop	r19
    16cc:	2f 91       	pop	r18
    16ce:	0f 90       	pop	r0
    16d0:	0f be       	out	0x3f, r0	; 63
    16d2:	0f 90       	pop	r0
    16d4:	1f 90       	pop	r1
    16d6:	18 95       	reti

000016d8 <_Z14callback_timerv>:
static int index = 0;

static timer_t timers_SW[MAX_TIMERS];

void callback_timer (void)
{
    16d8:	ef 92       	push	r14
    16da:	ff 92       	push	r15
    16dc:	0f 93       	push	r16
    16de:	1f 93       	push	r17
    16e0:	cf 93       	push	r28
    16e2:	df 93       	push	r29
	// update count_timeout_cs of all timers if OVF -> callback (cont_timeot_cs == timeout_cs)

	int i = 0;
	for (i = 0; i < index; i++)
    16e4:	80 91 f0 04 	lds	r24, 0x04F0	; 0x8004f0 <_ZL5index>
    16e8:	90 91 f1 04 	lds	r25, 0x04F1	; 0x8004f1 <_ZL5index+0x1>
    16ec:	18 16       	cp	r1, r24
    16ee:	19 06       	cpc	r1, r25
    16f0:	0c f5       	brge	.+66     	; 0x1734 <_Z14callback_timerv+0x5c>
    16f2:	c0 e8       	ldi	r28, 0x80	; 128
    16f4:	d4 e0       	ldi	r29, 0x04	; 4
    16f6:	00 e0       	ldi	r16, 0x00	; 0
    16f8:	10 e0       	ldi	r17, 0x00	; 0
	{
		if(timers_SW[i].state)
    16fa:	8e 81       	ldd	r24, Y+6	; 0x06
    16fc:	88 23       	and	r24, r24
    16fe:	81 f0       	breq	.+32     	; 0x1720 <_Z14callback_timerv+0x48>
		{
			timers_SW[i].count_timeout_cs++;
    1700:	8c 81       	ldd	r24, Y+4	; 0x04
    1702:	9d 81       	ldd	r25, Y+5	; 0x05
    1704:	01 96       	adiw	r24, 0x01	; 1
    1706:	9d 83       	std	Y+5, r25	; 0x05
    1708:	8c 83       	std	Y+4, r24	; 0x04
			if(timers_SW[i].count_timeout_cs >= timers_SW[i].timeout_cs)
    170a:	2a 81       	ldd	r18, Y+2	; 0x02
    170c:	3b 81       	ldd	r19, Y+3	; 0x03
    170e:	82 17       	cp	r24, r18
    1710:	93 07       	cpc	r25, r19
    1712:	30 f0       	brcs	.+12     	; 0x1720 <_Z14callback_timerv+0x48>
			{
				fnqueue_add (timers_SW[i].timeout_signal);
    1714:	88 81       	ld	r24, Y
    1716:	99 81       	ldd	r25, Y+1	; 0x01
    1718:	0e 94 36 06 	call	0xc6c	; 0xc6c <_Z11fnqueue_addPFvvE>
				timers_SW[i].count_timeout_cs = 0;
    171c:	1d 82       	std	Y+5, r1	; 0x05
    171e:	1c 82       	std	Y+4, r1	; 0x04
void callback_timer (void)
{
	// update count_timeout_cs of all timers if OVF -> callback (cont_timeot_cs == timeout_cs)

	int i = 0;
	for (i = 0; i < index; i++)
    1720:	0f 5f       	subi	r16, 0xFF	; 255
    1722:	1f 4f       	sbci	r17, 0xFF	; 255
    1724:	27 96       	adiw	r28, 0x07	; 7
    1726:	80 91 f0 04 	lds	r24, 0x04F0	; 0x8004f0 <_ZL5index>
    172a:	90 91 f1 04 	lds	r25, 0x04F1	; 0x8004f1 <_ZL5index+0x1>
    172e:	08 17       	cp	r16, r24
    1730:	19 07       	cpc	r17, r25
    1732:	1c f3       	brlt	.-58     	; 0x16fa <_Z14callback_timerv+0x22>
				fnqueue_add (timers_SW[i].timeout_signal);
				timers_SW[i].count_timeout_cs = 0;
			}
		}
	}
}
    1734:	df 91       	pop	r29
    1736:	cf 91       	pop	r28
    1738:	1f 91       	pop	r17
    173a:	0f 91       	pop	r16
    173c:	ff 90       	pop	r15
    173e:	ef 90       	pop	r14
    1740:	08 95       	ret

00001742 <_Z10timers_newPFvvE>:

timer_t *timers_new(void (* timeout_signal)(void))
{
	if(index < MAX_TIMERS)
    1742:	20 91 f0 04 	lds	r18, 0x04F0	; 0x8004f0 <_ZL5index>
    1746:	30 91 f1 04 	lds	r19, 0x04F1	; 0x8004f1 <_ZL5index+0x1>
    174a:	20 31       	cpi	r18, 0x10	; 16
    174c:	31 05       	cpc	r19, r1
    174e:	74 f5       	brge	.+92     	; 0x17ac <_Z10timers_newPFvvE+0x6a>
	{
		timers_SW[index].count_timeout_cs = 0;
    1750:	f9 01       	movw	r30, r18
    1752:	ee 0f       	add	r30, r30
    1754:	ff 1f       	adc	r31, r31
    1756:	ee 0f       	add	r30, r30
    1758:	ff 1f       	adc	r31, r31
    175a:	ee 0f       	add	r30, r30
    175c:	ff 1f       	adc	r31, r31
    175e:	e2 1b       	sub	r30, r18
    1760:	f3 0b       	sbc	r31, r19
    1762:	e0 58       	subi	r30, 0x80	; 128
    1764:	fb 4f       	sbci	r31, 0xFB	; 251
    1766:	15 82       	std	Z+5, r1	; 0x05
    1768:	14 82       	std	Z+4, r1	; 0x04
		timers_SW[index].state = false;
    176a:	16 82       	std	Z+6, r1	; 0x06
		timers_SW[index].timeout_cs = 0;
    176c:	13 82       	std	Z+3, r1	; 0x03
    176e:	12 82       	std	Z+2, r1	; 0x02
		timers_SW[index].timeout_signal = timeout_signal;
    1770:	91 83       	std	Z+1, r25	; 0x01
    1772:	80 83       	st	Z, r24
		if(index == 0)
    1774:	23 2b       	or	r18, r19
    1776:	21 f4       	brne	.+8      	; 0x1780 <_Z10timers_newPFvvE+0x3e>
		{
			timer_init(callback_timer);
    1778:	8c e6       	ldi	r24, 0x6C	; 108
    177a:	9b e0       	ldi	r25, 0x0B	; 11
    177c:	0e 94 0e 0b 	call	0x161c	; 0x161c <_Z10timer_initPFvvE>
		}
		index++;
    1780:	20 91 f0 04 	lds	r18, 0x04F0	; 0x8004f0 <_ZL5index>
    1784:	30 91 f1 04 	lds	r19, 0x04F1	; 0x8004f1 <_ZL5index+0x1>
    1788:	c9 01       	movw	r24, r18
    178a:	01 96       	adiw	r24, 0x01	; 1
    178c:	90 93 f1 04 	sts	0x04F1, r25	; 0x8004f1 <_ZL5index+0x1>
    1790:	80 93 f0 04 	sts	0x04F0, r24	; 0x8004f0 <_ZL5index>
		return &timers_SW[index-1];
    1794:	c9 01       	movw	r24, r18
    1796:	88 0f       	add	r24, r24
    1798:	99 1f       	adc	r25, r25
    179a:	88 0f       	add	r24, r24
    179c:	99 1f       	adc	r25, r25
    179e:	88 0f       	add	r24, r24
    17a0:	99 1f       	adc	r25, r25
    17a2:	82 1b       	sub	r24, r18
    17a4:	93 0b       	sbc	r25, r19
    17a6:	80 58       	subi	r24, 0x80	; 128
    17a8:	9b 4f       	sbci	r25, 0xFB	; 251
    17aa:	08 95       	ret
	}
	
	return NULL;
    17ac:	80 e0       	ldi	r24, 0x00	; 0
    17ae:	90 e0       	ldi	r25, 0x00	; 0
}
    17b0:	08 95       	ret

000017b2 <_Z12timers_startP5Timerj>:

bool timers_start(timer_t* timer, uint16_t timeout_cs)
{
    17b2:	fc 01       	movw	r30, r24
	timer->timeout_cs = timeout_cs;
    17b4:	73 83       	std	Z+3, r23	; 0x03
    17b6:	62 83       	std	Z+2, r22	; 0x02
	timer->count_timeout_cs = 0;
    17b8:	15 82       	std	Z+5, r1	; 0x05
    17ba:	14 82       	std	Z+4, r1	; 0x04
	timer->state = true;
    17bc:	81 e0       	ldi	r24, 0x01	; 1
    17be:	86 83       	std	Z+6, r24	; 0x06

	return true;
}
    17c0:	08 95       	ret

000017c2 <main>:
    17c2:	78 94       	sei
    17c4:	84 b5       	in	r24, 0x24	; 36
    17c6:	82 60       	ori	r24, 0x02	; 2
    17c8:	84 bd       	out	0x24, r24	; 36
    17ca:	84 b5       	in	r24, 0x24	; 36
    17cc:	81 60       	ori	r24, 0x01	; 1
    17ce:	84 bd       	out	0x24, r24	; 36
    17d0:	85 b5       	in	r24, 0x25	; 37
    17d2:	82 60       	ori	r24, 0x02	; 2
    17d4:	85 bd       	out	0x25, r24	; 37
    17d6:	85 b5       	in	r24, 0x25	; 37
    17d8:	81 60       	ori	r24, 0x01	; 1
    17da:	85 bd       	out	0x25, r24	; 37
    17dc:	80 91 6e 00 	lds	r24, 0x006E	; 0x80006e <__TEXT_REGION_LENGTH__+0x7e006e>
    17e0:	81 60       	ori	r24, 0x01	; 1
    17e2:	80 93 6e 00 	sts	0x006E, r24	; 0x80006e <__TEXT_REGION_LENGTH__+0x7e006e>
    17e6:	10 92 81 00 	sts	0x0081, r1	; 0x800081 <__TEXT_REGION_LENGTH__+0x7e0081>
    17ea:	80 91 81 00 	lds	r24, 0x0081	; 0x800081 <__TEXT_REGION_LENGTH__+0x7e0081>
    17ee:	82 60       	ori	r24, 0x02	; 2
    17f0:	80 93 81 00 	sts	0x0081, r24	; 0x800081 <__TEXT_REGION_LENGTH__+0x7e0081>
    17f4:	80 91 81 00 	lds	r24, 0x0081	; 0x800081 <__TEXT_REGION_LENGTH__+0x7e0081>
    17f8:	81 60       	ori	r24, 0x01	; 1
    17fa:	80 93 81 00 	sts	0x0081, r24	; 0x800081 <__TEXT_REGION_LENGTH__+0x7e0081>
    17fe:	80 91 80 00 	lds	r24, 0x0080	; 0x800080 <__TEXT_REGION_LENGTH__+0x7e0080>
    1802:	81 60       	ori	r24, 0x01	; 1
    1804:	80 93 80 00 	sts	0x0080, r24	; 0x800080 <__TEXT_REGION_LENGTH__+0x7e0080>
    1808:	80 91 b1 00 	lds	r24, 0x00B1	; 0x8000b1 <__TEXT_REGION_LENGTH__+0x7e00b1>
    180c:	84 60       	ori	r24, 0x04	; 4
    180e:	80 93 b1 00 	sts	0x00B1, r24	; 0x8000b1 <__TEXT_REGION_LENGTH__+0x7e00b1>
    1812:	80 91 b0 00 	lds	r24, 0x00B0	; 0x8000b0 <__TEXT_REGION_LENGTH__+0x7e00b0>
    1816:	81 60       	ori	r24, 0x01	; 1
    1818:	80 93 b0 00 	sts	0x00B0, r24	; 0x8000b0 <__TEXT_REGION_LENGTH__+0x7e00b0>
    181c:	80 91 7a 00 	lds	r24, 0x007A	; 0x80007a <__TEXT_REGION_LENGTH__+0x7e007a>
    1820:	84 60       	ori	r24, 0x04	; 4
    1822:	80 93 7a 00 	sts	0x007A, r24	; 0x80007a <__TEXT_REGION_LENGTH__+0x7e007a>
    1826:	80 91 7a 00 	lds	r24, 0x007A	; 0x80007a <__TEXT_REGION_LENGTH__+0x7e007a>
    182a:	82 60       	ori	r24, 0x02	; 2
    182c:	80 93 7a 00 	sts	0x007A, r24	; 0x80007a <__TEXT_REGION_LENGTH__+0x7e007a>
    1830:	80 91 7a 00 	lds	r24, 0x007A	; 0x80007a <__TEXT_REGION_LENGTH__+0x7e007a>
    1834:	81 60       	ori	r24, 0x01	; 1
    1836:	80 93 7a 00 	sts	0x007A, r24	; 0x80007a <__TEXT_REGION_LENGTH__+0x7e007a>
    183a:	80 91 7a 00 	lds	r24, 0x007A	; 0x80007a <__TEXT_REGION_LENGTH__+0x7e007a>
    183e:	80 68       	ori	r24, 0x80	; 128
    1840:	80 93 7a 00 	sts	0x007A, r24	; 0x80007a <__TEXT_REGION_LENGTH__+0x7e007a>
    1844:	10 92 c1 00 	sts	0x00C1, r1	; 0x8000c1 <__TEXT_REGION_LENGTH__+0x7e00c1>
    1848:	0e 94 64 0a 	call	0x14c8	; 0x14c8 <setup>
    184c:	0e 94 b9 0a 	call	0x1572	; 0x1572 <loop>
    1850:	0e 94 91 01 	call	0x322	; 0x322 <_Z14serialEventRunv>
    1854:	fb cf       	rjmp	.-10     	; 0x184c <main+0x8a>

00001856 <_GLOBAL__sub_I___vector_18>:
    1856:	e6 e9       	ldi	r30, 0x96	; 150
    1858:	f1 e0       	ldi	r31, 0x01	; 1
    185a:	13 82       	std	Z+3, r1	; 0x03
    185c:	12 82       	std	Z+2, r1	; 0x02
    185e:	88 ee       	ldi	r24, 0xE8	; 232
    1860:	93 e0       	ldi	r25, 0x03	; 3
    1862:	a0 e0       	ldi	r26, 0x00	; 0
    1864:	b0 e0       	ldi	r27, 0x00	; 0
    1866:	84 83       	std	Z+4, r24	; 0x04
    1868:	95 83       	std	Z+5, r25	; 0x05
    186a:	a6 83       	std	Z+6, r26	; 0x06
    186c:	b7 83       	std	Z+7, r27	; 0x07
    186e:	80 e1       	ldi	r24, 0x10	; 16
    1870:	91 e0       	ldi	r25, 0x01	; 1
    1872:	91 83       	std	Z+1, r25	; 0x01
    1874:	80 83       	st	Z, r24
    1876:	85 ec       	ldi	r24, 0xC5	; 197
    1878:	90 e0       	ldi	r25, 0x00	; 0
    187a:	95 87       	std	Z+13, r25	; 0x0d
    187c:	84 87       	std	Z+12, r24	; 0x0c
    187e:	84 ec       	ldi	r24, 0xC4	; 196
    1880:	90 e0       	ldi	r25, 0x00	; 0
    1882:	97 87       	std	Z+15, r25	; 0x0f
    1884:	86 87       	std	Z+14, r24	; 0x0e
    1886:	80 ec       	ldi	r24, 0xC0	; 192
    1888:	90 e0       	ldi	r25, 0x00	; 0
    188a:	91 8b       	std	Z+17, r25	; 0x11
    188c:	80 8b       	std	Z+16, r24	; 0x10
    188e:	81 ec       	ldi	r24, 0xC1	; 193
    1890:	90 e0       	ldi	r25, 0x00	; 0
    1892:	93 8b       	std	Z+19, r25	; 0x13
    1894:	82 8b       	std	Z+18, r24	; 0x12
    1896:	82 ec       	ldi	r24, 0xC2	; 194
    1898:	90 e0       	ldi	r25, 0x00	; 0
    189a:	95 8b       	std	Z+21, r25	; 0x15
    189c:	84 8b       	std	Z+20, r24	; 0x14
    189e:	86 ec       	ldi	r24, 0xC6	; 198
    18a0:	90 e0       	ldi	r25, 0x00	; 0
    18a2:	97 8b       	std	Z+23, r25	; 0x17
    18a4:	86 8b       	std	Z+22, r24	; 0x16
    18a6:	11 8e       	std	Z+25, r1	; 0x19
    18a8:	12 8e       	std	Z+26, r1	; 0x1a
    18aa:	13 8e       	std	Z+27, r1	; 0x1b
    18ac:	14 8e       	std	Z+28, r1	; 0x1c
    18ae:	08 95       	ret

000018b0 <__subsf3>:
    18b0:	50 58       	subi	r21, 0x80	; 128

000018b2 <__addsf3>:
    18b2:	bb 27       	eor	r27, r27
    18b4:	aa 27       	eor	r26, r26
    18b6:	0e 94 70 0c 	call	0x18e0	; 0x18e0 <__addsf3x>
    18ba:	0c 94 b4 0d 	jmp	0x1b68	; 0x1b68 <__fp_round>
    18be:	0e 94 a6 0d 	call	0x1b4c	; 0x1b4c <__fp_pscA>
    18c2:	38 f0       	brcs	.+14     	; 0x18d2 <__addsf3+0x20>
    18c4:	0e 94 ad 0d 	call	0x1b5a	; 0x1b5a <__fp_pscB>
    18c8:	20 f0       	brcs	.+8      	; 0x18d2 <__addsf3+0x20>
    18ca:	39 f4       	brne	.+14     	; 0x18da <__addsf3+0x28>
    18cc:	9f 3f       	cpi	r25, 0xFF	; 255
    18ce:	19 f4       	brne	.+6      	; 0x18d6 <__addsf3+0x24>
    18d0:	26 f4       	brtc	.+8      	; 0x18da <__addsf3+0x28>
    18d2:	0c 94 a3 0d 	jmp	0x1b46	; 0x1b46 <__fp_nan>
    18d6:	0e f4       	brtc	.+2      	; 0x18da <__addsf3+0x28>
    18d8:	e0 95       	com	r30
    18da:	e7 fb       	bst	r30, 7
    18dc:	0c 94 9d 0d 	jmp	0x1b3a	; 0x1b3a <__fp_inf>

000018e0 <__addsf3x>:
    18e0:	e9 2f       	mov	r30, r25
    18e2:	0e 94 c5 0d 	call	0x1b8a	; 0x1b8a <__fp_split3>
    18e6:	58 f3       	brcs	.-42     	; 0x18be <__addsf3+0xc>
    18e8:	ba 17       	cp	r27, r26
    18ea:	62 07       	cpc	r22, r18
    18ec:	73 07       	cpc	r23, r19
    18ee:	84 07       	cpc	r24, r20
    18f0:	95 07       	cpc	r25, r21
    18f2:	20 f0       	brcs	.+8      	; 0x18fc <__addsf3x+0x1c>
    18f4:	79 f4       	brne	.+30     	; 0x1914 <__addsf3x+0x34>
    18f6:	a6 f5       	brtc	.+104    	; 0x1960 <__addsf3x+0x80>
    18f8:	0c 94 e7 0d 	jmp	0x1bce	; 0x1bce <__fp_zero>
    18fc:	0e f4       	brtc	.+2      	; 0x1900 <__addsf3x+0x20>
    18fe:	e0 95       	com	r30
    1900:	0b 2e       	mov	r0, r27
    1902:	ba 2f       	mov	r27, r26
    1904:	a0 2d       	mov	r26, r0
    1906:	0b 01       	movw	r0, r22
    1908:	b9 01       	movw	r22, r18
    190a:	90 01       	movw	r18, r0
    190c:	0c 01       	movw	r0, r24
    190e:	ca 01       	movw	r24, r20
    1910:	a0 01       	movw	r20, r0
    1912:	11 24       	eor	r1, r1
    1914:	ff 27       	eor	r31, r31
    1916:	59 1b       	sub	r21, r25
    1918:	99 f0       	breq	.+38     	; 0x1940 <__addsf3x+0x60>
    191a:	59 3f       	cpi	r21, 0xF9	; 249
    191c:	50 f4       	brcc	.+20     	; 0x1932 <__addsf3x+0x52>
    191e:	50 3e       	cpi	r21, 0xE0	; 224
    1920:	68 f1       	brcs	.+90     	; 0x197c <__addsf3x+0x9c>
    1922:	1a 16       	cp	r1, r26
    1924:	f0 40       	sbci	r31, 0x00	; 0
    1926:	a2 2f       	mov	r26, r18
    1928:	23 2f       	mov	r18, r19
    192a:	34 2f       	mov	r19, r20
    192c:	44 27       	eor	r20, r20
    192e:	58 5f       	subi	r21, 0xF8	; 248
    1930:	f3 cf       	rjmp	.-26     	; 0x1918 <__addsf3x+0x38>
    1932:	46 95       	lsr	r20
    1934:	37 95       	ror	r19
    1936:	27 95       	ror	r18
    1938:	a7 95       	ror	r26
    193a:	f0 40       	sbci	r31, 0x00	; 0
    193c:	53 95       	inc	r21
    193e:	c9 f7       	brne	.-14     	; 0x1932 <__addsf3x+0x52>
    1940:	7e f4       	brtc	.+30     	; 0x1960 <__addsf3x+0x80>
    1942:	1f 16       	cp	r1, r31
    1944:	ba 0b       	sbc	r27, r26
    1946:	62 0b       	sbc	r22, r18
    1948:	73 0b       	sbc	r23, r19
    194a:	84 0b       	sbc	r24, r20
    194c:	ba f0       	brmi	.+46     	; 0x197c <__addsf3x+0x9c>
    194e:	91 50       	subi	r25, 0x01	; 1
    1950:	a1 f0       	breq	.+40     	; 0x197a <__addsf3x+0x9a>
    1952:	ff 0f       	add	r31, r31
    1954:	bb 1f       	adc	r27, r27
    1956:	66 1f       	adc	r22, r22
    1958:	77 1f       	adc	r23, r23
    195a:	88 1f       	adc	r24, r24
    195c:	c2 f7       	brpl	.-16     	; 0x194e <__addsf3x+0x6e>
    195e:	0e c0       	rjmp	.+28     	; 0x197c <__addsf3x+0x9c>
    1960:	ba 0f       	add	r27, r26
    1962:	62 1f       	adc	r22, r18
    1964:	73 1f       	adc	r23, r19
    1966:	84 1f       	adc	r24, r20
    1968:	48 f4       	brcc	.+18     	; 0x197c <__addsf3x+0x9c>
    196a:	87 95       	ror	r24
    196c:	77 95       	ror	r23
    196e:	67 95       	ror	r22
    1970:	b7 95       	ror	r27
    1972:	f7 95       	ror	r31
    1974:	9e 3f       	cpi	r25, 0xFE	; 254
    1976:	08 f0       	brcs	.+2      	; 0x197a <__addsf3x+0x9a>
    1978:	b0 cf       	rjmp	.-160    	; 0x18da <__addsf3+0x28>
    197a:	93 95       	inc	r25
    197c:	88 0f       	add	r24, r24
    197e:	08 f0       	brcs	.+2      	; 0x1982 <__addsf3x+0xa2>
    1980:	99 27       	eor	r25, r25
    1982:	ee 0f       	add	r30, r30
    1984:	97 95       	ror	r25
    1986:	87 95       	ror	r24
    1988:	08 95       	ret

0000198a <__cmpsf2>:
    198a:	0e 94 79 0d 	call	0x1af2	; 0x1af2 <__fp_cmp>
    198e:	08 f4       	brcc	.+2      	; 0x1992 <__cmpsf2+0x8>
    1990:	81 e0       	ldi	r24, 0x01	; 1
    1992:	08 95       	ret

00001994 <__divsf3>:
    1994:	0e 94 de 0c 	call	0x19bc	; 0x19bc <__divsf3x>
    1998:	0c 94 b4 0d 	jmp	0x1b68	; 0x1b68 <__fp_round>
    199c:	0e 94 ad 0d 	call	0x1b5a	; 0x1b5a <__fp_pscB>
    19a0:	58 f0       	brcs	.+22     	; 0x19b8 <__divsf3+0x24>
    19a2:	0e 94 a6 0d 	call	0x1b4c	; 0x1b4c <__fp_pscA>
    19a6:	40 f0       	brcs	.+16     	; 0x19b8 <__divsf3+0x24>
    19a8:	29 f4       	brne	.+10     	; 0x19b4 <__divsf3+0x20>
    19aa:	5f 3f       	cpi	r21, 0xFF	; 255
    19ac:	29 f0       	breq	.+10     	; 0x19b8 <__divsf3+0x24>
    19ae:	0c 94 9d 0d 	jmp	0x1b3a	; 0x1b3a <__fp_inf>
    19b2:	51 11       	cpse	r21, r1
    19b4:	0c 94 e8 0d 	jmp	0x1bd0	; 0x1bd0 <__fp_szero>
    19b8:	0c 94 a3 0d 	jmp	0x1b46	; 0x1b46 <__fp_nan>

000019bc <__divsf3x>:
    19bc:	0e 94 c5 0d 	call	0x1b8a	; 0x1b8a <__fp_split3>
    19c0:	68 f3       	brcs	.-38     	; 0x199c <__divsf3+0x8>

000019c2 <__divsf3_pse>:
    19c2:	99 23       	and	r25, r25
    19c4:	b1 f3       	breq	.-20     	; 0x19b2 <__divsf3+0x1e>
    19c6:	55 23       	and	r21, r21
    19c8:	91 f3       	breq	.-28     	; 0x19ae <__divsf3+0x1a>
    19ca:	95 1b       	sub	r25, r21
    19cc:	55 0b       	sbc	r21, r21
    19ce:	bb 27       	eor	r27, r27
    19d0:	aa 27       	eor	r26, r26
    19d2:	62 17       	cp	r22, r18
    19d4:	73 07       	cpc	r23, r19
    19d6:	84 07       	cpc	r24, r20
    19d8:	38 f0       	brcs	.+14     	; 0x19e8 <__divsf3_pse+0x26>
    19da:	9f 5f       	subi	r25, 0xFF	; 255
    19dc:	5f 4f       	sbci	r21, 0xFF	; 255
    19de:	22 0f       	add	r18, r18
    19e0:	33 1f       	adc	r19, r19
    19e2:	44 1f       	adc	r20, r20
    19e4:	aa 1f       	adc	r26, r26
    19e6:	a9 f3       	breq	.-22     	; 0x19d2 <__divsf3_pse+0x10>
    19e8:	35 d0       	rcall	.+106    	; 0x1a54 <__divsf3_pse+0x92>
    19ea:	0e 2e       	mov	r0, r30
    19ec:	3a f0       	brmi	.+14     	; 0x19fc <__divsf3_pse+0x3a>
    19ee:	e0 e8       	ldi	r30, 0x80	; 128
    19f0:	32 d0       	rcall	.+100    	; 0x1a56 <__divsf3_pse+0x94>
    19f2:	91 50       	subi	r25, 0x01	; 1
    19f4:	50 40       	sbci	r21, 0x00	; 0
    19f6:	e6 95       	lsr	r30
    19f8:	00 1c       	adc	r0, r0
    19fa:	ca f7       	brpl	.-14     	; 0x19ee <__divsf3_pse+0x2c>
    19fc:	2b d0       	rcall	.+86     	; 0x1a54 <__divsf3_pse+0x92>
    19fe:	fe 2f       	mov	r31, r30
    1a00:	29 d0       	rcall	.+82     	; 0x1a54 <__divsf3_pse+0x92>
    1a02:	66 0f       	add	r22, r22
    1a04:	77 1f       	adc	r23, r23
    1a06:	88 1f       	adc	r24, r24
    1a08:	bb 1f       	adc	r27, r27
    1a0a:	26 17       	cp	r18, r22
    1a0c:	37 07       	cpc	r19, r23
    1a0e:	48 07       	cpc	r20, r24
    1a10:	ab 07       	cpc	r26, r27
    1a12:	b0 e8       	ldi	r27, 0x80	; 128
    1a14:	09 f0       	breq	.+2      	; 0x1a18 <__divsf3_pse+0x56>
    1a16:	bb 0b       	sbc	r27, r27
    1a18:	80 2d       	mov	r24, r0
    1a1a:	bf 01       	movw	r22, r30
    1a1c:	ff 27       	eor	r31, r31
    1a1e:	93 58       	subi	r25, 0x83	; 131
    1a20:	5f 4f       	sbci	r21, 0xFF	; 255
    1a22:	3a f0       	brmi	.+14     	; 0x1a32 <__divsf3_pse+0x70>
    1a24:	9e 3f       	cpi	r25, 0xFE	; 254
    1a26:	51 05       	cpc	r21, r1
    1a28:	78 f0       	brcs	.+30     	; 0x1a48 <__divsf3_pse+0x86>
    1a2a:	0c 94 9d 0d 	jmp	0x1b3a	; 0x1b3a <__fp_inf>
    1a2e:	0c 94 e8 0d 	jmp	0x1bd0	; 0x1bd0 <__fp_szero>
    1a32:	5f 3f       	cpi	r21, 0xFF	; 255
    1a34:	e4 f3       	brlt	.-8      	; 0x1a2e <__divsf3_pse+0x6c>
    1a36:	98 3e       	cpi	r25, 0xE8	; 232
    1a38:	d4 f3       	brlt	.-12     	; 0x1a2e <__divsf3_pse+0x6c>
    1a3a:	86 95       	lsr	r24
    1a3c:	77 95       	ror	r23
    1a3e:	67 95       	ror	r22
    1a40:	b7 95       	ror	r27
    1a42:	f7 95       	ror	r31
    1a44:	9f 5f       	subi	r25, 0xFF	; 255
    1a46:	c9 f7       	brne	.-14     	; 0x1a3a <__divsf3_pse+0x78>
    1a48:	88 0f       	add	r24, r24
    1a4a:	91 1d       	adc	r25, r1
    1a4c:	96 95       	lsr	r25
    1a4e:	87 95       	ror	r24
    1a50:	97 f9       	bld	r25, 7
    1a52:	08 95       	ret
    1a54:	e1 e0       	ldi	r30, 0x01	; 1
    1a56:	66 0f       	add	r22, r22
    1a58:	77 1f       	adc	r23, r23
    1a5a:	88 1f       	adc	r24, r24
    1a5c:	bb 1f       	adc	r27, r27
    1a5e:	62 17       	cp	r22, r18
    1a60:	73 07       	cpc	r23, r19
    1a62:	84 07       	cpc	r24, r20
    1a64:	ba 07       	cpc	r27, r26
    1a66:	20 f0       	brcs	.+8      	; 0x1a70 <__divsf3_pse+0xae>
    1a68:	62 1b       	sub	r22, r18
    1a6a:	73 0b       	sbc	r23, r19
    1a6c:	84 0b       	sbc	r24, r20
    1a6e:	ba 0b       	sbc	r27, r26
    1a70:	ee 1f       	adc	r30, r30
    1a72:	88 f7       	brcc	.-30     	; 0x1a56 <__divsf3_pse+0x94>
    1a74:	e0 95       	com	r30
    1a76:	08 95       	ret

00001a78 <__floatunsisf>:
    1a78:	e8 94       	clt
    1a7a:	09 c0       	rjmp	.+18     	; 0x1a8e <__floatsisf+0x12>

00001a7c <__floatsisf>:
    1a7c:	97 fb       	bst	r25, 7
    1a7e:	3e f4       	brtc	.+14     	; 0x1a8e <__floatsisf+0x12>
    1a80:	90 95       	com	r25
    1a82:	80 95       	com	r24
    1a84:	70 95       	com	r23
    1a86:	61 95       	neg	r22
    1a88:	7f 4f       	sbci	r23, 0xFF	; 255
    1a8a:	8f 4f       	sbci	r24, 0xFF	; 255
    1a8c:	9f 4f       	sbci	r25, 0xFF	; 255
    1a8e:	99 23       	and	r25, r25
    1a90:	a9 f0       	breq	.+42     	; 0x1abc <__floatsisf+0x40>
    1a92:	f9 2f       	mov	r31, r25
    1a94:	96 e9       	ldi	r25, 0x96	; 150
    1a96:	bb 27       	eor	r27, r27
    1a98:	93 95       	inc	r25
    1a9a:	f6 95       	lsr	r31
    1a9c:	87 95       	ror	r24
    1a9e:	77 95       	ror	r23
    1aa0:	67 95       	ror	r22
    1aa2:	b7 95       	ror	r27
    1aa4:	f1 11       	cpse	r31, r1
    1aa6:	f8 cf       	rjmp	.-16     	; 0x1a98 <__floatsisf+0x1c>
    1aa8:	fa f4       	brpl	.+62     	; 0x1ae8 <__floatsisf+0x6c>
    1aaa:	bb 0f       	add	r27, r27
    1aac:	11 f4       	brne	.+4      	; 0x1ab2 <__floatsisf+0x36>
    1aae:	60 ff       	sbrs	r22, 0
    1ab0:	1b c0       	rjmp	.+54     	; 0x1ae8 <__floatsisf+0x6c>
    1ab2:	6f 5f       	subi	r22, 0xFF	; 255
    1ab4:	7f 4f       	sbci	r23, 0xFF	; 255
    1ab6:	8f 4f       	sbci	r24, 0xFF	; 255
    1ab8:	9f 4f       	sbci	r25, 0xFF	; 255
    1aba:	16 c0       	rjmp	.+44     	; 0x1ae8 <__floatsisf+0x6c>
    1abc:	88 23       	and	r24, r24
    1abe:	11 f0       	breq	.+4      	; 0x1ac4 <__floatsisf+0x48>
    1ac0:	96 e9       	ldi	r25, 0x96	; 150
    1ac2:	11 c0       	rjmp	.+34     	; 0x1ae6 <__floatsisf+0x6a>
    1ac4:	77 23       	and	r23, r23
    1ac6:	21 f0       	breq	.+8      	; 0x1ad0 <__floatsisf+0x54>
    1ac8:	9e e8       	ldi	r25, 0x8E	; 142
    1aca:	87 2f       	mov	r24, r23
    1acc:	76 2f       	mov	r23, r22
    1ace:	05 c0       	rjmp	.+10     	; 0x1ada <__floatsisf+0x5e>
    1ad0:	66 23       	and	r22, r22
    1ad2:	71 f0       	breq	.+28     	; 0x1af0 <__floatsisf+0x74>
    1ad4:	96 e8       	ldi	r25, 0x86	; 134
    1ad6:	86 2f       	mov	r24, r22
    1ad8:	70 e0       	ldi	r23, 0x00	; 0
    1ada:	60 e0       	ldi	r22, 0x00	; 0
    1adc:	2a f0       	brmi	.+10     	; 0x1ae8 <__floatsisf+0x6c>
    1ade:	9a 95       	dec	r25
    1ae0:	66 0f       	add	r22, r22
    1ae2:	77 1f       	adc	r23, r23
    1ae4:	88 1f       	adc	r24, r24
    1ae6:	da f7       	brpl	.-10     	; 0x1ade <__floatsisf+0x62>
    1ae8:	88 0f       	add	r24, r24
    1aea:	96 95       	lsr	r25
    1aec:	87 95       	ror	r24
    1aee:	97 f9       	bld	r25, 7
    1af0:	08 95       	ret

00001af2 <__fp_cmp>:
    1af2:	99 0f       	add	r25, r25
    1af4:	00 08       	sbc	r0, r0
    1af6:	55 0f       	add	r21, r21
    1af8:	aa 0b       	sbc	r26, r26
    1afa:	e0 e8       	ldi	r30, 0x80	; 128
    1afc:	fe ef       	ldi	r31, 0xFE	; 254
    1afe:	16 16       	cp	r1, r22
    1b00:	17 06       	cpc	r1, r23
    1b02:	e8 07       	cpc	r30, r24
    1b04:	f9 07       	cpc	r31, r25
    1b06:	c0 f0       	brcs	.+48     	; 0x1b38 <__fp_cmp+0x46>
    1b08:	12 16       	cp	r1, r18
    1b0a:	13 06       	cpc	r1, r19
    1b0c:	e4 07       	cpc	r30, r20
    1b0e:	f5 07       	cpc	r31, r21
    1b10:	98 f0       	brcs	.+38     	; 0x1b38 <__fp_cmp+0x46>
    1b12:	62 1b       	sub	r22, r18
    1b14:	73 0b       	sbc	r23, r19
    1b16:	84 0b       	sbc	r24, r20
    1b18:	95 0b       	sbc	r25, r21
    1b1a:	39 f4       	brne	.+14     	; 0x1b2a <__fp_cmp+0x38>
    1b1c:	0a 26       	eor	r0, r26
    1b1e:	61 f0       	breq	.+24     	; 0x1b38 <__fp_cmp+0x46>
    1b20:	23 2b       	or	r18, r19
    1b22:	24 2b       	or	r18, r20
    1b24:	25 2b       	or	r18, r21
    1b26:	21 f4       	brne	.+8      	; 0x1b30 <__fp_cmp+0x3e>
    1b28:	08 95       	ret
    1b2a:	0a 26       	eor	r0, r26
    1b2c:	09 f4       	brne	.+2      	; 0x1b30 <__fp_cmp+0x3e>
    1b2e:	a1 40       	sbci	r26, 0x01	; 1
    1b30:	a6 95       	lsr	r26
    1b32:	8f ef       	ldi	r24, 0xFF	; 255
    1b34:	81 1d       	adc	r24, r1
    1b36:	81 1d       	adc	r24, r1
    1b38:	08 95       	ret

00001b3a <__fp_inf>:
    1b3a:	97 f9       	bld	r25, 7
    1b3c:	9f 67       	ori	r25, 0x7F	; 127
    1b3e:	80 e8       	ldi	r24, 0x80	; 128
    1b40:	70 e0       	ldi	r23, 0x00	; 0
    1b42:	60 e0       	ldi	r22, 0x00	; 0
    1b44:	08 95       	ret

00001b46 <__fp_nan>:
    1b46:	9f ef       	ldi	r25, 0xFF	; 255
    1b48:	80 ec       	ldi	r24, 0xC0	; 192
    1b4a:	08 95       	ret

00001b4c <__fp_pscA>:
    1b4c:	00 24       	eor	r0, r0
    1b4e:	0a 94       	dec	r0
    1b50:	16 16       	cp	r1, r22
    1b52:	17 06       	cpc	r1, r23
    1b54:	18 06       	cpc	r1, r24
    1b56:	09 06       	cpc	r0, r25
    1b58:	08 95       	ret

00001b5a <__fp_pscB>:
    1b5a:	00 24       	eor	r0, r0
    1b5c:	0a 94       	dec	r0
    1b5e:	12 16       	cp	r1, r18
    1b60:	13 06       	cpc	r1, r19
    1b62:	14 06       	cpc	r1, r20
    1b64:	05 06       	cpc	r0, r21
    1b66:	08 95       	ret

00001b68 <__fp_round>:
    1b68:	09 2e       	mov	r0, r25
    1b6a:	03 94       	inc	r0
    1b6c:	00 0c       	add	r0, r0
    1b6e:	11 f4       	brne	.+4      	; 0x1b74 <__fp_round+0xc>
    1b70:	88 23       	and	r24, r24
    1b72:	52 f0       	brmi	.+20     	; 0x1b88 <__fp_round+0x20>
    1b74:	bb 0f       	add	r27, r27
    1b76:	40 f4       	brcc	.+16     	; 0x1b88 <__fp_round+0x20>
    1b78:	bf 2b       	or	r27, r31
    1b7a:	11 f4       	brne	.+4      	; 0x1b80 <__fp_round+0x18>
    1b7c:	60 ff       	sbrs	r22, 0
    1b7e:	04 c0       	rjmp	.+8      	; 0x1b88 <__fp_round+0x20>
    1b80:	6f 5f       	subi	r22, 0xFF	; 255
    1b82:	7f 4f       	sbci	r23, 0xFF	; 255
    1b84:	8f 4f       	sbci	r24, 0xFF	; 255
    1b86:	9f 4f       	sbci	r25, 0xFF	; 255
    1b88:	08 95       	ret

00001b8a <__fp_split3>:
    1b8a:	57 fd       	sbrc	r21, 7
    1b8c:	90 58       	subi	r25, 0x80	; 128
    1b8e:	44 0f       	add	r20, r20
    1b90:	55 1f       	adc	r21, r21
    1b92:	59 f0       	breq	.+22     	; 0x1baa <__fp_splitA+0x10>
    1b94:	5f 3f       	cpi	r21, 0xFF	; 255
    1b96:	71 f0       	breq	.+28     	; 0x1bb4 <__fp_splitA+0x1a>
    1b98:	47 95       	ror	r20

00001b9a <__fp_splitA>:
    1b9a:	88 0f       	add	r24, r24
    1b9c:	97 fb       	bst	r25, 7
    1b9e:	99 1f       	adc	r25, r25
    1ba0:	61 f0       	breq	.+24     	; 0x1bba <__fp_splitA+0x20>
    1ba2:	9f 3f       	cpi	r25, 0xFF	; 255
    1ba4:	79 f0       	breq	.+30     	; 0x1bc4 <__fp_splitA+0x2a>
    1ba6:	87 95       	ror	r24
    1ba8:	08 95       	ret
    1baa:	12 16       	cp	r1, r18
    1bac:	13 06       	cpc	r1, r19
    1bae:	14 06       	cpc	r1, r20
    1bb0:	55 1f       	adc	r21, r21
    1bb2:	f2 cf       	rjmp	.-28     	; 0x1b98 <__fp_split3+0xe>
    1bb4:	46 95       	lsr	r20
    1bb6:	f1 df       	rcall	.-30     	; 0x1b9a <__fp_splitA>
    1bb8:	08 c0       	rjmp	.+16     	; 0x1bca <__fp_splitA+0x30>
    1bba:	16 16       	cp	r1, r22
    1bbc:	17 06       	cpc	r1, r23
    1bbe:	18 06       	cpc	r1, r24
    1bc0:	99 1f       	adc	r25, r25
    1bc2:	f1 cf       	rjmp	.-30     	; 0x1ba6 <__fp_splitA+0xc>
    1bc4:	86 95       	lsr	r24
    1bc6:	71 05       	cpc	r23, r1
    1bc8:	61 05       	cpc	r22, r1
    1bca:	08 94       	sec
    1bcc:	08 95       	ret

00001bce <__fp_zero>:
    1bce:	e8 94       	clt

00001bd0 <__fp_szero>:
    1bd0:	bb 27       	eor	r27, r27
    1bd2:	66 27       	eor	r22, r22
    1bd4:	77 27       	eor	r23, r23
    1bd6:	cb 01       	movw	r24, r22
    1bd8:	97 f9       	bld	r25, 7
    1bda:	08 95       	ret

00001bdc <__gesf2>:
    1bdc:	0e 94 79 0d 	call	0x1af2	; 0x1af2 <__fp_cmp>
    1be0:	08 f4       	brcc	.+2      	; 0x1be4 <__gesf2+0x8>
    1be2:	8f ef       	ldi	r24, 0xFF	; 255
    1be4:	08 95       	ret

00001be6 <__mulsf3>:
    1be6:	0e 94 06 0e 	call	0x1c0c	; 0x1c0c <__mulsf3x>
    1bea:	0c 94 b4 0d 	jmp	0x1b68	; 0x1b68 <__fp_round>
    1bee:	0e 94 a6 0d 	call	0x1b4c	; 0x1b4c <__fp_pscA>
    1bf2:	38 f0       	brcs	.+14     	; 0x1c02 <__mulsf3+0x1c>
    1bf4:	0e 94 ad 0d 	call	0x1b5a	; 0x1b5a <__fp_pscB>
    1bf8:	20 f0       	brcs	.+8      	; 0x1c02 <__mulsf3+0x1c>
    1bfa:	95 23       	and	r25, r21
    1bfc:	11 f0       	breq	.+4      	; 0x1c02 <__mulsf3+0x1c>
    1bfe:	0c 94 9d 0d 	jmp	0x1b3a	; 0x1b3a <__fp_inf>
    1c02:	0c 94 a3 0d 	jmp	0x1b46	; 0x1b46 <__fp_nan>
    1c06:	11 24       	eor	r1, r1
    1c08:	0c 94 e8 0d 	jmp	0x1bd0	; 0x1bd0 <__fp_szero>

00001c0c <__mulsf3x>:
    1c0c:	0e 94 c5 0d 	call	0x1b8a	; 0x1b8a <__fp_split3>
    1c10:	70 f3       	brcs	.-36     	; 0x1bee <__mulsf3+0x8>

00001c12 <__mulsf3_pse>:
    1c12:	95 9f       	mul	r25, r21
    1c14:	c1 f3       	breq	.-16     	; 0x1c06 <__mulsf3+0x20>
    1c16:	95 0f       	add	r25, r21
    1c18:	50 e0       	ldi	r21, 0x00	; 0
    1c1a:	55 1f       	adc	r21, r21
    1c1c:	62 9f       	mul	r22, r18
    1c1e:	f0 01       	movw	r30, r0
    1c20:	72 9f       	mul	r23, r18
    1c22:	bb 27       	eor	r27, r27
    1c24:	f0 0d       	add	r31, r0
    1c26:	b1 1d       	adc	r27, r1
    1c28:	63 9f       	mul	r22, r19
    1c2a:	aa 27       	eor	r26, r26
    1c2c:	f0 0d       	add	r31, r0
    1c2e:	b1 1d       	adc	r27, r1
    1c30:	aa 1f       	adc	r26, r26
    1c32:	64 9f       	mul	r22, r20
    1c34:	66 27       	eor	r22, r22
    1c36:	b0 0d       	add	r27, r0
    1c38:	a1 1d       	adc	r26, r1
    1c3a:	66 1f       	adc	r22, r22
    1c3c:	82 9f       	mul	r24, r18
    1c3e:	22 27       	eor	r18, r18
    1c40:	b0 0d       	add	r27, r0
    1c42:	a1 1d       	adc	r26, r1
    1c44:	62 1f       	adc	r22, r18
    1c46:	73 9f       	mul	r23, r19
    1c48:	b0 0d       	add	r27, r0
    1c4a:	a1 1d       	adc	r26, r1
    1c4c:	62 1f       	adc	r22, r18
    1c4e:	83 9f       	mul	r24, r19
    1c50:	a0 0d       	add	r26, r0
    1c52:	61 1d       	adc	r22, r1
    1c54:	22 1f       	adc	r18, r18
    1c56:	74 9f       	mul	r23, r20
    1c58:	33 27       	eor	r19, r19
    1c5a:	a0 0d       	add	r26, r0
    1c5c:	61 1d       	adc	r22, r1
    1c5e:	23 1f       	adc	r18, r19
    1c60:	84 9f       	mul	r24, r20
    1c62:	60 0d       	add	r22, r0
    1c64:	21 1d       	adc	r18, r1
    1c66:	82 2f       	mov	r24, r18
    1c68:	76 2f       	mov	r23, r22
    1c6a:	6a 2f       	mov	r22, r26
    1c6c:	11 24       	eor	r1, r1
    1c6e:	9f 57       	subi	r25, 0x7F	; 127
    1c70:	50 40       	sbci	r21, 0x00	; 0
    1c72:	9a f0       	brmi	.+38     	; 0x1c9a <__mulsf3_pse+0x88>
    1c74:	f1 f0       	breq	.+60     	; 0x1cb2 <__mulsf3_pse+0xa0>
    1c76:	88 23       	and	r24, r24
    1c78:	4a f0       	brmi	.+18     	; 0x1c8c <__mulsf3_pse+0x7a>
    1c7a:	ee 0f       	add	r30, r30
    1c7c:	ff 1f       	adc	r31, r31
    1c7e:	bb 1f       	adc	r27, r27
    1c80:	66 1f       	adc	r22, r22
    1c82:	77 1f       	adc	r23, r23
    1c84:	88 1f       	adc	r24, r24
    1c86:	91 50       	subi	r25, 0x01	; 1
    1c88:	50 40       	sbci	r21, 0x00	; 0
    1c8a:	a9 f7       	brne	.-22     	; 0x1c76 <__mulsf3_pse+0x64>
    1c8c:	9e 3f       	cpi	r25, 0xFE	; 254
    1c8e:	51 05       	cpc	r21, r1
    1c90:	80 f0       	brcs	.+32     	; 0x1cb2 <__mulsf3_pse+0xa0>
    1c92:	0c 94 9d 0d 	jmp	0x1b3a	; 0x1b3a <__fp_inf>
    1c96:	0c 94 e8 0d 	jmp	0x1bd0	; 0x1bd0 <__fp_szero>
    1c9a:	5f 3f       	cpi	r21, 0xFF	; 255
    1c9c:	e4 f3       	brlt	.-8      	; 0x1c96 <__mulsf3_pse+0x84>
    1c9e:	98 3e       	cpi	r25, 0xE8	; 232
    1ca0:	d4 f3       	brlt	.-12     	; 0x1c96 <__mulsf3_pse+0x84>
    1ca2:	86 95       	lsr	r24
    1ca4:	77 95       	ror	r23
    1ca6:	67 95       	ror	r22
    1ca8:	b7 95       	ror	r27
    1caa:	f7 95       	ror	r31
    1cac:	e7 95       	ror	r30
    1cae:	9f 5f       	subi	r25, 0xFF	; 255
    1cb0:	c1 f7       	brne	.-16     	; 0x1ca2 <__mulsf3_pse+0x90>
    1cb2:	fe 2b       	or	r31, r30
    1cb4:	88 0f       	add	r24, r24
    1cb6:	91 1d       	adc	r25, r1
    1cb8:	96 95       	lsr	r25
    1cba:	87 95       	ror	r24
    1cbc:	97 f9       	bld	r25, 7
    1cbe:	08 95       	ret

00001cc0 <__umulhisi3>:
    1cc0:	a2 9f       	mul	r26, r18
    1cc2:	b0 01       	movw	r22, r0
    1cc4:	b3 9f       	mul	r27, r19
    1cc6:	c0 01       	movw	r24, r0
    1cc8:	a3 9f       	mul	r26, r19
    1cca:	70 0d       	add	r23, r0
    1ccc:	81 1d       	adc	r24, r1
    1cce:	11 24       	eor	r1, r1
    1cd0:	91 1d       	adc	r25, r1
    1cd2:	b2 9f       	mul	r27, r18
    1cd4:	70 0d       	add	r23, r0
    1cd6:	81 1d       	adc	r24, r1
    1cd8:	11 24       	eor	r1, r1
    1cda:	91 1d       	adc	r25, r1
    1cdc:	08 95       	ret

00001cde <__tablejump2__>:
    1cde:	ee 0f       	add	r30, r30
    1ce0:	ff 1f       	adc	r31, r31
    1ce2:	05 90       	lpm	r0, Z+
    1ce4:	f4 91       	lpm	r31, Z
    1ce6:	e0 2d       	mov	r30, r0
    1ce8:	09 94       	ijmp

00001cea <__fixunssfsi>:
    1cea:	0e 94 cd 0d 	call	0x1b9a	; 0x1b9a <__fp_splitA>
    1cee:	88 f0       	brcs	.+34     	; 0x1d12 <__fixunssfsi+0x28>
    1cf0:	9f 57       	subi	r25, 0x7F	; 127
    1cf2:	98 f0       	brcs	.+38     	; 0x1d1a <__fixunssfsi+0x30>
    1cf4:	b9 2f       	mov	r27, r25
    1cf6:	99 27       	eor	r25, r25
    1cf8:	b7 51       	subi	r27, 0x17	; 23
    1cfa:	b0 f0       	brcs	.+44     	; 0x1d28 <__fixunssfsi+0x3e>
    1cfc:	e1 f0       	breq	.+56     	; 0x1d36 <__fixunssfsi+0x4c>
    1cfe:	66 0f       	add	r22, r22
    1d00:	77 1f       	adc	r23, r23
    1d02:	88 1f       	adc	r24, r24
    1d04:	99 1f       	adc	r25, r25
    1d06:	1a f0       	brmi	.+6      	; 0x1d0e <__fixunssfsi+0x24>
    1d08:	ba 95       	dec	r27
    1d0a:	c9 f7       	brne	.-14     	; 0x1cfe <__fixunssfsi+0x14>
    1d0c:	14 c0       	rjmp	.+40     	; 0x1d36 <__fixunssfsi+0x4c>
    1d0e:	b1 30       	cpi	r27, 0x01	; 1
    1d10:	91 f0       	breq	.+36     	; 0x1d36 <__fixunssfsi+0x4c>
    1d12:	0e 94 e7 0d 	call	0x1bce	; 0x1bce <__fp_zero>
    1d16:	b1 e0       	ldi	r27, 0x01	; 1
    1d18:	08 95       	ret
    1d1a:	0c 94 e7 0d 	jmp	0x1bce	; 0x1bce <__fp_zero>
    1d1e:	67 2f       	mov	r22, r23
    1d20:	78 2f       	mov	r23, r24
    1d22:	88 27       	eor	r24, r24
    1d24:	b8 5f       	subi	r27, 0xF8	; 248
    1d26:	39 f0       	breq	.+14     	; 0x1d36 <__fixunssfsi+0x4c>
    1d28:	b9 3f       	cpi	r27, 0xF9	; 249
    1d2a:	cc f3       	brlt	.-14     	; 0x1d1e <__fixunssfsi+0x34>
    1d2c:	86 95       	lsr	r24
    1d2e:	77 95       	ror	r23
    1d30:	67 95       	ror	r22
    1d32:	b3 95       	inc	r27
    1d34:	d9 f7       	brne	.-10     	; 0x1d2c <__fixunssfsi+0x42>
    1d36:	3e f4       	brtc	.+14     	; 0x1d46 <__fixunssfsi+0x5c>
    1d38:	90 95       	com	r25
    1d3a:	80 95       	com	r24
    1d3c:	70 95       	com	r23
    1d3e:	61 95       	neg	r22
    1d40:	7f 4f       	sbci	r23, 0xFF	; 255
    1d42:	8f 4f       	sbci	r24, 0xFF	; 255
    1d44:	9f 4f       	sbci	r25, 0xFF	; 255
    1d46:	08 95       	ret

00001d48 <__unordsf2>:
    1d48:	0e 94 79 0d 	call	0x1af2	; 0x1af2 <__fp_cmp>
    1d4c:	88 0b       	sbc	r24, r24
    1d4e:	99 0b       	sbc	r25, r25
    1d50:	08 95       	ret

00001d52 <__udivmodsi4>:
    1d52:	a1 e2       	ldi	r26, 0x21	; 33
    1d54:	1a 2e       	mov	r1, r26
    1d56:	aa 1b       	sub	r26, r26
    1d58:	bb 1b       	sub	r27, r27
    1d5a:	fd 01       	movw	r30, r26
    1d5c:	0d c0       	rjmp	.+26     	; 0x1d78 <__udivmodsi4_ep>

00001d5e <__udivmodsi4_loop>:
    1d5e:	aa 1f       	adc	r26, r26
    1d60:	bb 1f       	adc	r27, r27
    1d62:	ee 1f       	adc	r30, r30
    1d64:	ff 1f       	adc	r31, r31
    1d66:	a2 17       	cp	r26, r18
    1d68:	b3 07       	cpc	r27, r19
    1d6a:	e4 07       	cpc	r30, r20
    1d6c:	f5 07       	cpc	r31, r21
    1d6e:	20 f0       	brcs	.+8      	; 0x1d78 <__udivmodsi4_ep>
    1d70:	a2 1b       	sub	r26, r18
    1d72:	b3 0b       	sbc	r27, r19
    1d74:	e4 0b       	sbc	r30, r20
    1d76:	f5 0b       	sbc	r31, r21

00001d78 <__udivmodsi4_ep>:
    1d78:	66 1f       	adc	r22, r22
    1d7a:	77 1f       	adc	r23, r23
    1d7c:	88 1f       	adc	r24, r24
    1d7e:	99 1f       	adc	r25, r25
    1d80:	1a 94       	dec	r1
    1d82:	69 f7       	brne	.-38     	; 0x1d5e <__udivmodsi4_loop>
    1d84:	60 95       	com	r22
    1d86:	70 95       	com	r23
    1d88:	80 95       	com	r24
    1d8a:	90 95       	com	r25
    1d8c:	9b 01       	movw	r18, r22
    1d8e:	ac 01       	movw	r20, r24
    1d90:	bd 01       	movw	r22, r26
    1d92:	cf 01       	movw	r24, r30
    1d94:	08 95       	ret

00001d96 <abort>:
    1d96:	81 e0       	ldi	r24, 0x01	; 1
    1d98:	90 e0       	ldi	r25, 0x00	; 0
    1d9a:	f8 94       	cli
    1d9c:	0c 94 d0 0e 	jmp	0x1da0	; 0x1da0 <_exit>

00001da0 <_exit>:
    1da0:	f8 94       	cli

00001da2 <__stop_program>:
    1da2:	ff cf       	rjmp	.-2      	; 0x1da2 <__stop_program>
